ARM Linker, 4.1 [Build 481] [Standard]

==============================================================================

Section Cross References

    startup_stm32f10x_hd.o(RESET) refers to startup_stm32f10x_hd.o(STACK) for __initial_sp
    startup_stm32f10x_hd.o(RESET) refers to startup_stm32f10x_hd.o(.text) for Reset_Handler
    startup_stm32f10x_hd.o(RESET) refers to stm32f10x_it.o(.text) for NMI_Handler
    startup_stm32f10x_hd.o(RESET) refers to context_rvds.o(.text) for HardFault_Handler
    startup_stm32f10x_hd.o(RESET) refers to board.o(.text) for SysTick_Handler
    startup_stm32f10x_hd.o(RESET) refers to enc28j60.o(.text) for EXTI9_5_IRQHandler
    startup_stm32f10x_hd.o(RESET) refers to usart.o(.text) for USART1_IRQHandler
    startup_stm32f10x_hd.o(.text) refers to system_stm32f10x.o(.text) for SystemInit
    startup_stm32f10x_hd.o(.text) refers to entry.o(.ARM.Collect$$$$00000000) for __main
    context_rvds.o(.text) refers to cpuport.o(.text) for rt_hw_hard_fault_exception
    context_rvds.o(.text) refers to cpuport.o(.data) for rt_thread_switch_interrupt_flag
    cpuport.o(.text) refers to kservice.o(.text) for rt_kprintf
    cpuport.o(.text) refers to thread.o(.text) for rt_thread_self
    cpuport.o(.text) refers to cmd.o(.text) for list_thread
    cpuport.o(.text) refers to cpuport.o(.data) for rt_exception_hook
    cpuport.o(.text) refers to cpuport.o(.constdata) for __FUNCTION__
    showmem.o(.text) refers to kservice.o(.text) for rt_kprintf
    showmem.o(.text) refers to showmem.o(.constdata) for __FUNCTION__
    startup.o(.text) refers to kservice.o(.text) for rt_kprintf
    startup.o(.text) refers to board.o(.text) for rt_hw_board_init
    startup.o(.text) refers to mem.o(.text) for rt_system_heap_init
    startup.o(.text) refers to scheduler.o(.text) for rt_system_scheduler_init
    startup.o(.text) refers to timer.o(.text) for rt_system_timer_init
    startup.o(.text) refers to application.o(.text) for rt_application_init
    startup.o(.text) refers to shell.o(.text) for finsh_system_init
    startup.o(.text) refers to idle.o(.text) for rt_thread_idle_init
    startup.o(.text) refers to context_rvds.o(.text) for rt_hw_interrupt_disable
    application.o(.text) refers to kservice.o(.text) for rt_kprintf
    application.o(.text) refers to key_input.o(.text) for rt_hw_key_init
    application.o(.text) refers to led.o(.text) for rt_hw_led_init
    application.o(.text) refers to thread.o(.text) for rt_thread_delay
    application.o(.text) refers to lcd1602.o(.text) for rt_hw_lcd1602_init
    application.o(.text) refers to spi_instruction.o(.text) for rt_hw_stm32_dsp_instruction_init
    application.o(.text) refers to components.o(.text) for rt_components_init
    application.o(.text) refers to shell.o(.text) for finsh_set_device
    application.o(.text) refers to iic_cs4385.o(.text) for IIC_Init
    application.o(.text) refers to ethernetif.o(.text) for eth_system_device_init
    application.o(.text) refers to enc28j60.o(.text) for rt_hw_stm32_eth_init
    application.o(.text) refers to sys_arch.o(.text) for lwip_sys_init
    application.o(.text) refers to tcpserver.o(.text) for tcpserv
    application.o(.text) refers to application.o(.data) for g_i_have_key_pressed
    application.o(.text) refers to application.o(.bss) for led_stack
    echo.o(.text) refers to ipc.o(.text) for rt_mq_send
    echo.o(.text) refers to kservice.o(.text) for rt_kprintf
    echo.o(.text) refers to device.o(.text) for rt_device_find
    echo.o(.text) refers to thread.o(.text) for rt_thread_create
    echo.o(.text) refers to echo.o(.bss) for rx_mq
    tcpserver.o(.text) refers to mem.o(.text) for rt_malloc
    tcpserver.o(.text) refers to kservice.o(.text) for rt_kprintf
    tcpserver.o(.text) refers to sockets.o(.text) for lwip_socket
    tcpserver.o(.text) refers to def.o(.text) for lwip_htons
    tcpserver.o(.text) refers to ip_addr.o(.text) for ipaddr_ntoa
    tcpserver.o(.text) refers to strcmp.o(.text) for strcmp
    tcpserver.o(FSymTab) refers to tcpserver.o(.constdata) for __fsym_tcpserv_name
    tcpserver.o(FSymTab) refers to tcpserver.o(.text) for tcpserv
    stm32f10x_adc.o(.text) refers to stm32f10x_rcc.o(.text) for RCC_APB2PeriphResetCmd
    stm32f10x_bkp.o(.text) refers to stm32f10x_rcc.o(.text) for RCC_BackupResetCmd
    stm32f10x_can.o(.text) refers to stm32f10x_rcc.o(.text) for RCC_APB1PeriphResetCmd
    stm32f10x_cec.o(.text) refers to stm32f10x_rcc.o(.text) for RCC_APB1PeriphResetCmd
    stm32f10x_dac.o(.text) refers to stm32f10x_rcc.o(.text) for RCC_APB1PeriphResetCmd
    stm32f10x_gpio.o(.text) refers to stm32f10x_rcc.o(.text) for RCC_APB2PeriphResetCmd
    stm32f10x_i2c.o(.text) refers to stm32f10x_rcc.o(.text) for RCC_APB1PeriphResetCmd
    stm32f10x_pwr.o(.text) refers to stm32f10x_rcc.o(.text) for RCC_APB1PeriphResetCmd
    stm32f10x_rcc.o(.text) refers to stm32f10x_rcc.o(.data) for APBAHBPrescTable
    stm32f10x_spi.o(.text) refers to stm32f10x_rcc.o(.text) for RCC_APB2PeriphResetCmd
    stm32f10x_tim.o(.text) refers to stm32f10x_rcc.o(.text) for RCC_APB2PeriphResetCmd
    stm32f10x_usart.o(.text) refers to stm32f10x_rcc.o(.text) for RCC_APB2PeriphResetCmd
    stm32f10x_wwdg.o(.text) refers to stm32f10x_rcc.o(.text) for RCC_APB1PeriphResetCmd
    system_stm32f10x.o(.text) refers to system_stm32f10x.o(.data) for SystemCoreClock
    clock.o(.text) refers to context_rvds.o(.text) for rt_hw_interrupt_disable
    clock.o(.text) refers to thread.o(.text) for rt_thread_self
    clock.o(.text) refers to timer.o(.text) for rt_timer_check
    clock.o(.text) refers to clock.o(.data) for rt_tick
    device.o(.text) refers to thread.o(.text) for rt_thread_self
    device.o(.text) refers to scheduler.o(.text) for rt_enter_critical
    device.o(.text) refers to kservice.o(.text) for rt_strncmp
    device.o(.text) refers to object.o(.text) for rt_object_init
    device.o(.text) refers to object.o(.data) for rt_object_container
    device.o(.text) refers to device.o(.constdata) for __FUNCTION__
    idle.o(.text) refers to context_rvds.o(.text) for rt_hw_interrupt_disable
    idle.o(.text) refers to irq.o(.text) for rt_interrupt_get_nest
    idle.o(.text) refers to kservice.o(.text) for rt_kprintf
    idle.o(.text) refers to object.o(.text) for rt_object_is_systemobject
    idle.o(.text) refers to mem.o(.text) for rt_free
    idle.o(.text) refers to thread.o(.text) for rt_thread_init
    idle.o(.text) refers to idle.o(.data) for rt_thread_idle_hook
    idle.o(.text) refers to idle.o(.constdata) for __FUNCTION__
    idle.o(.text) refers to scheduler.o(.data) for rt_thread_defunct
    idle.o(.text) refers to idle.o(.bss) for rt_thread_stack
    ipc.o(.text) refers to thread.o(.text) for rt_thread_suspend
    ipc.o(.text) refers to context_rvds.o(.text) for rt_hw_interrupt_disable
    ipc.o(.text) refers to kservice.o(.text) for rt_kprintf
    ipc.o(.text) refers to object.o(.text) for rt_object_init
    ipc.o(.text) refers to irq.o(.text) for rt_interrupt_get_nest
    ipc.o(.text) refers to timer.o(.text) for rt_timer_control
    ipc.o(.text) refers to scheduler.o(.text) for rt_schedule
    ipc.o(.text) refers to ipc.o(.constdata) for __FUNCTION__
    ipc.o(.text) refers to object.o(.data) for rt_object_trytake_hook
    ipc.o(.text) refers to mem.o(.text) for rt_malloc
    ipc.o(.text) refers to clock.o(.text) for rt_tick_get
    irq.o(.text) refers to context_rvds.o(.text) for rt_hw_interrupt_disable
    irq.o(.text) refers to irq.o(.data) for rt_interrupt_nest
    kservice.o(.text) refers to irq.o(.text) for rt_interrupt_get_nest
    kservice.o(.text) refers to thread.o(.text) for rt_thread_self
    kservice.o(.text) refers to mem.o(.text) for rt_malloc
    kservice.o(.text) refers to kservice.o(.data) for _errno
    kservice.o(.text) refers to kservice.o(.constdata) for large_digits
    kservice.o(.text) refers to device.o(.text) for rt_device_write
    kservice.o(.text) refers to kservice.o(.bss) for rt_log_buf
    mem.o(.text) refers to kservice.o(.text) for rt_kprintf
    mem.o(.text) refers to context_rvds.o(.text) for rt_hw_interrupt_disable
    mem.o(.text) refers to irq.o(.text) for rt_interrupt_get_nest
    mem.o(.text) refers to ipc.o(.text) for rt_sem_init
    mem.o(.text) refers to mem.o(.data) for rt_malloc_hook
    mem.o(.text) refers to mem.o(.constdata) for __FUNCTION__
    mem.o(.text) refers to mem.o(.bss) for heap_sem
    mem.o(FSymTab) refers to mem.o(.constdata) for __fsym_list_mem_name
    mem.o(FSymTab) refers to mem.o(.text) for list_mem
    mempool.o(.text) refers to kservice.o(.text) for rt_kprintf
    mempool.o(.text) refers to object.o(.text) for rt_object_init
    mempool.o(.text) refers to context_rvds.o(.text) for rt_hw_interrupt_disable
    mempool.o(.text) refers to thread.o(.text) for rt_thread_resume
    mempool.o(.text) refers to irq.o(.text) for rt_interrupt_get_nest
    mempool.o(.text) refers to mem.o(.text) for rt_malloc
    mempool.o(.text) refers to timer.o(.text) for rt_timer_control
    mempool.o(.text) refers to scheduler.o(.text) for rt_schedule
    mempool.o(.text) refers to mempool.o(.data) for rt_mp_alloc_hook
    mempool.o(.text) refers to mempool.o(.constdata) for __FUNCTION__
    object.o(.text) refers to kservice.o(.text) for rt_strncpy
    object.o(.text) refers to context_rvds.o(.text) for rt_hw_interrupt_disable
    object.o(.text) refers to irq.o(.text) for rt_interrupt_get_nest
    object.o(.text) refers to mem.o(.text) for rt_malloc
    object.o(.text) refers to scheduler.o(.text) for rt_enter_critical
    object.o(.text) refers to object.o(.data) for rt_object_attach_hook
    object.o(.text) refers to object.o(.constdata) for __FUNCTION__
    object.o(.text) refers to irq.o(.data) for rt_interrupt_nest
    scheduler.o(.text) refers to kservice.o(.text) for rt_kprintf
    scheduler.o(.text) refers to cmd.o(.text) for list_thread
    scheduler.o(.text) refers to context_rvds.o(.text) for rt_hw_interrupt_disable
    scheduler.o(.text) refers to scheduler.o(.data) for rt_scheduler_hook
    scheduler.o(.text) refers to scheduler.o(.constdata) for __FUNCTION__
    scheduler.o(.text) refers to scheduler.o(.bss) for rt_thread_priority_table
    scheduler.o(.text) refers to irq.o(.data) for rt_interrupt_nest
    thread.o(.text) refers to context_rvds.o(.text) for rt_hw_interrupt_disable
    thread.o(.text) refers to scheduler.o(.text) for rt_schedule_remove_thread
    thread.o(.text) refers to timer.o(.text) for rt_timer_detach
    thread.o(.text) refers to object.o(.text) for rt_object_is_systemobject
    thread.o(.text) refers to kservice.o(.text) for rt_kprintf
    thread.o(.text) refers to cpuport.o(.text) for rt_hw_stack_init
    thread.o(.text) refers to mem.o(.text) for rt_malloc
    thread.o(.text) refers to scheduler.o(.data) for rt_current_thread
    thread.o(.text) refers to thread.o(.constdata) for __FUNCTION__
    thread.o(.text) refers to scheduler.o(.bss) for rt_thread_priority_table
    thread.o(.text) refers to object.o(.data) for rt_object_container
    timer.o(.text) refers to kservice.o(.text) for rt_kprintf
    timer.o(.text) refers to object.o(.text) for rt_object_init
    timer.o(.text) refers to context_rvds.o(.text) for rt_hw_interrupt_disable
    timer.o(.text) refers to clock.o(.text) for rt_tick_get
    timer.o(.text) refers to timer.o(.data) for rt_timer_timeout_hook
    timer.o(.text) refers to timer.o(.constdata) for __FUNCTION__
    timer.o(.text) refers to object.o(.data) for rt_object_take_hook
    board.o(.text) refers to misc.o(.text) for NVIC_SetVectorTable
    board.o(.text) refers to irq.o(.text) for rt_interrupt_enter
    board.o(.text) refers to clock.o(.text) for rt_tick_increase
    board.o(.text) refers to usart.o(.text) for rt_hw_usart_init
    board.o(.text) refers to kservice.o(.text) for rt_console_set_device
    board.o(.text) refers to components.o(.text) for rt_components_board_init
    board.o(.text) refers to system_stm32f10x.o(.data) for SystemCoreClock
    led.o(.text) refers to stm32f10x_rcc.o(.text) for RCC_APB2PeriphClockCmd
    led.o(.text) refers to stm32f10x_gpio.o(.text) for GPIO_Init
    led.o(.text) refers to led.o(.data) for g_led_init
    led.o(FSymTab) refers to led.o(.constdata) for __fsym_led_name
    led.o(FSymTab) refers to led.o(.text) for led
    usart.o(.text) refers to kservice.o(.text) for rt_kprintf
    usart.o(.text) refers to stm32f10x_usart.o(.text) for USART_Init
    usart.o(.text) refers to irq.o(.text) for rt_interrupt_enter
    usart.o(.text) refers to serial.o(.text) for rt_hw_serial_isr
    usart.o(.text) refers to stm32f10x_rcc.o(.text) for RCC_APB2PeriphClockCmd
    usart.o(.text) refers to stm32f10x_gpio.o(.text) for GPIO_Init
    usart.o(.text) refers to misc.o(.text) for NVIC_Init
    usart.o(.text) refers to usart.o(.constdata) for __FUNCTION__
    usart.o(.text) refers to usart.o(.data) for uart1
    usart.o(.text) refers to usart.o(.bss) for serial1
    usart.o(.constdata) refers to usart.o(.text) for stm32_configure
    spi_core.o(.text) refers to spi_dev.o(.text) for rt_spi_bus_device_init
    spi_core.o(.text) refers to ipc.o(.text) for rt_mutex_init
    spi_core.o(.text) refers to device.o(.text) for rt_device_find
    spi_core.o(.text) refers to kservice.o(.text) for rt_memset
    spi_core.o(.text) refers to spi_core.o(.constdata) for __FUNCTION__
    spi_dev.o(.text) refers to kservice.o(.text) for rt_kprintf
    spi_dev.o(.text) refers to spi_core.o(.text) for rt_spi_transfer
    spi_dev.o(.text) refers to device.o(.text) for rt_device_register
    spi_dev.o(.text) refers to spi_dev.o(.constdata) for __FUNCTION__
    spi_flash_w25qxx.o(.text) refers to ipc.o(.text) for rt_mutex_take
    spi_flash_w25qxx.o(.text) refers to spi_core.o(.text) for rt_spi_send_then_recv
    spi_flash_w25qxx.o(.text) refers to kservice.o(.text) for rt_kprintf
    spi_flash_w25qxx.o(.text) refers to device.o(.text) for rt_device_find
    spi_flash_w25qxx.o(.text) refers to spi_flash_w25qxx.o(.bss) for spi_flash_device
    spi_flash_w25qxx.o(.text) refers to spi_flash_w25qxx.o(.constdata) for __FUNCTION__
    rt_stm32f10x_spi.o(.text) refers to stm32f10x_spi.o(.text) for SPI_StructInit
    rt_stm32f10x_spi.o(.text) refers to stm32f10x_gpio.o(.text) for GPIO_ResetBits
    rt_stm32f10x_spi.o(.text) refers to stm32f10x_rcc.o(.text) for RCC_APB2PeriphClockCmd
    rt_stm32f10x_spi.o(.text) refers to spi_core.o(.text) for rt_spi_bus_register
    rt_stm32f10x_spi.o(.text) refers to rt_stm32f10x_spi.o(.data) for stm32_spi_ops
    rt_stm32f10x_spi.o(.text) refers to system_stm32f10x.o(.data) for SystemCoreClock
    rt_stm32f10x_spi.o(.data) refers to rt_stm32f10x_spi.o(.text) for configure
    rt_spi_flash_device.o(.text) refers to stm32f10x_rcc.o(.text) for RCC_APB2PeriphClockCmd
    rt_spi_flash_device.o(.text) refers to stm32f10x_gpio.o(.text) for GPIO_Init
    rt_spi_flash_device.o(.text) refers to rt_stm32f10x_spi.o(.text) for stm32_spi_register
    rt_spi_flash_device.o(.text) refers to spi_core.o(.text) for rt_spi_bus_attach_device
    rt_spi_flash_device.o(.text) refers to rt_spi_flash_device.o(.bss) for stm32_spi
    rt_spi_flash_device.o(.text) refers to rt_spi_flash_device.o(.data) for spi_cs
    enc28j60.o(.text) refers to spi_core.o(.text) for rt_spi_send_then_recv
    enc28j60.o(.text) refers to context_rvds.o(.text) for rt_hw_interrupt_disable
    enc28j60.o(.text) refers to ethernetif.o(.text) for eth_device_ready
    enc28j60.o(.text) refers to ipc.o(.text) for rt_mutex_take
    enc28j60.o(.text) refers to thread.o(.text) for rt_thread_delay
    enc28j60.o(.text) refers to kservice.o(.text) for rt_memcpy
    enc28j60.o(.text) refers to enc28j60.o(.data) for Enc28j60Bank
    enc28j60.o(.text) refers to enc28j60.o(.bss) for enc28j60_dev
    enc28j60.o(.text) refers to pbuf.o(.text) for pbuf_alloc
    enc28j60.o(.text) refers to enc28j60.o(.constdata) for __FUNCTION__
    enc28j60.o(.text) refers to device.o(.text) for rt_device_find
    enc28j60.o(.text) refers to memseta.o(.text) for __aeabi_memclr4
    enc28j60.o(.text) refers to stm32f10x_exti.o(.text) for EXTI_Init
    enc28j60.o(.text) refers to stm32f10x_rcc.o(.text) for RCC_APB2PeriphClockCmd
    enc28j60.o(.text) refers to stm32f10x_gpio.o(.text) for GPIO_Init
    enc28j60.o(.text) refers to rt_stm32f10x_spi.o(.text) for stm32_spi_register
    enc28j60.o(.text) refers to misc.o(.text) for NVIC_Init
    enc28j60.o(.text) refers to irq.o(.text) for rt_interrupt_enter
    enc28j60.o(FSymTab) refers to enc28j60.o(.constdata) for __fsym_enc28j60_name
    enc28j60.o(FSymTab) refers to enc28j60.o(.text) for enc28j60
    lcd1602.o(.text) refers to stm32f10x_rcc.o(.text) for RCC_APB2PeriphClockCmd
    lcd1602.o(.text) refers to stm32f10x_gpio.o(.text) for GPIO_Init
    lcd1602.o(.text) refers to thread.o(.text) for rt_thread_delay
    spi_instruction.o(.text) refers to stm32f10x_rcc.o(.text) for RCC_APB2PeriphClockCmd
    spi_instruction.o(.text) refers to stm32f10x_gpio.o(.text) for GPIO_Init
    spi_instruction.o(.text) refers to rt_stm32f10x_spi.o(.text) for stm32_spi_register
    spi_instruction.o(.text) refers to kservice.o(.text) for rt_kprintf
    spi_instruction.o(.text) refers to spi_core.o(.text) for rt_spi_bus_attach_device
    spi_instruction.o(.text) refers to ipc.o(.text) for rt_mutex_take
    spi_instruction.o(.text) refers to context_rvds.o(.text) for rt_hw_interrupt_disable
    spi_instruction.o(.text) refers to spi_instruction.o(.bss) for stm32_spi
    spi_instruction.o(.text) refers to spi_instruction.o(.data) for spi_cs
    key_input.o(.text) refers to stm32f10x_rcc.o(.text) for RCC_APB2PeriphClockCmd
    key_input.o(.text) refers to stm32f10x_gpio.o(.text) for GPIO_Init
    key_input.o(.text) refers to key_input.o(.data) for g_i_key_press_flag
    iic_cs4385.o(.text) refers to stm32f10x_rcc.o(.text) for RCC_APB2PeriphClockCmd
    iic_cs4385.o(.text) refers to stm32f10x_gpio.o(.text) for GPIO_Init
    components.o(.text) refers to components.o(.rti_fn.0) for __rt_init_rti_start
    components.o(.text) refers to components.o(.rti_fn.1.post) for __rt_init_rti_board_end
    components.o(.text) refers to components.o(.rti_fn.7) for __rt_init_rti_end
    components.o(.rti_fn.0) refers to components.o(.text) for rti_start
    components.o(.rti_fn.1.post) refers to components.o(.text) for rti_board_end
    components.o(.rti_fn.7) refers to components.o(.text) for rti_end
    completion.o(.text) refers to kservice.o(.text) for rt_kprintf
    completion.o(.text) refers to context_rvds.o(.text) for rt_hw_interrupt_disable
    completion.o(.text) refers to thread.o(.text) for rt_thread_self
    completion.o(.text) refers to irq.o(.text) for rt_interrupt_get_nest
    completion.o(.text) refers to timer.o(.text) for rt_timer_control
    completion.o(.text) refers to scheduler.o(.text) for rt_schedule
    completion.o(.text) refers to completion.o(.constdata) for __FUNCTION__
    dataqueue.o(.text) refers to kservice.o(.text) for rt_kprintf
    dataqueue.o(.text) refers to mem.o(.text) for rt_malloc
    dataqueue.o(.text) refers to thread.o(.text) for rt_thread_self
    dataqueue.o(.text) refers to context_rvds.o(.text) for rt_hw_interrupt_disable
    dataqueue.o(.text) refers to irq.o(.text) for rt_interrupt_get_nest
    dataqueue.o(.text) refers to timer.o(.text) for rt_timer_control
    dataqueue.o(.text) refers to scheduler.o(.text) for rt_schedule
    dataqueue.o(.text) refers to dataqueue.o(.constdata) for __FUNCTION__
    pipe.o(.text) refers to kservice.o(.text) for rt_kprintf
    pipe.o(.text) refers to thread.o(.text) for rt_thread_resume
    pipe.o(.text) refers to scheduler.o(.text) for rt_schedule
    pipe.o(.text) refers to context_rvds.o(.text) for rt_hw_interrupt_disable
    pipe.o(.text) refers to ringbuffer.o(.text) for rt_ringbuffer_get
    pipe.o(.text) refers to irq.o(.text) for rt_interrupt_get_nest
    pipe.o(.text) refers to device.o(.text) for rt_device_register
    pipe.o(.text) refers to mem.o(.text) for rt_calloc
    pipe.o(.text) refers to pipe.o(.constdata) for __FUNCTION__
    portal.o(.text) refers to kservice.o(.text) for rt_kprintf
    portal.o(.text) refers to device.o(.text) for rt_device_init
    portal.o(.text) refers to mem.o(.text) for rt_calloc
    portal.o(.text) refers to portal.o(.constdata) for __FUNCTION__
    ringbuffer.o(.text) refers to kservice.o(.text) for rt_kprintf
    ringbuffer.o(.text) refers to memcpya.o(.text) for __aeabi_memcpy
    ringbuffer.o(.text) refers to ringbuffer.o(.constdata) for __FUNCTION__
    serial.o(.text) refers to kservice.o(.text) for rt_kprintf
    serial.o(.text) refers to dataqueue.o(.text) for rt_data_queue_init
    serial.o(.text) refers to context_rvds.o(.text) for rt_hw_interrupt_disable
    serial.o(.text) refers to serial.o(.constdata) for __FUNCTION__
    serial.o(.text) refers to device.o(.text) for rt_device_register
    cmd.o(.text) refers to kservice.o(.text) for rt_kprintf
    cmd.o(.text) refers to clock.o(.text) for rt_tick_get
    cmd.o(.text) refers to cmd.o(.constdata) for .constdata
    cmd.o(.text) refers to object.o(.data) for rt_object_container
    cmd.o(.text) refers to memcpya.o(.text) for __aeabi_memcpy4
    cmd.o(.text) refers to strncmp.o(.text) for strncmp
    cmd.o(.text) refers to strlen.o(.text) for strlen
    cmd.o(.text) refers to symbol.o(.data) for _syscall_table_begin
    cmd.o(.text) refers to finsh_vm.o(.data) for global_syscall_list
    cmd.o(.text) refers to finsh_var.o(.data) for global_sysvar_list
    cmd.o(.constdata) refers to cmd.o(.conststring) for .conststring
    cmd.o(FSymTab) refers to cmd.o(.constdata) for __fsym_hello_name
    cmd.o(FSymTab) refers to cmd.o(.text) for hello
    cmd.o(VSymTab) refers to cmd.o(.constdata) for __vsym_dummy_name
    cmd.o(VSymTab) refers to cmd.o(.data) for dummy
    finsh_compiler.o(.text) refers to finsh_compiler.o(.data) for finsh_compile_pc
    finsh_compiler.o(.text) refers to finsh_error.o(.text) for finsh_error_set
    finsh_compiler.o(.text) refers to memseta.o(.text) for __aeabi_memclr
    finsh_compiler.o(.text) refers to finsh_vm.o(.bss) for text_segment
    finsh_error.o(.text) refers to finsh_error.o(.data) for global_errno
    finsh_error.o(.data) refers to finsh_error.o(.conststring) for .conststring
    finsh_heap.o(.text) refers to memseta.o(.text) for __aeabi_memclr4
    finsh_heap.o(.text) refers to finsh_heap.o(.bss) for finsh_heap
    finsh_heap.o(.text) refers to finsh_heap.o(.data) for free_list
    finsh_heap.o(.text) refers to finsh_var.o(.bss) for global_variable
    finsh_init.o(.text) refers to finsh_parser.o(.text) for finsh_parser_init
    finsh_init.o(.text) refers to finsh_node.o(.text) for finsh_node_init
    finsh_init.o(.text) refers to finsh_var.o(.text) for finsh_var_init
    finsh_init.o(.text) refers to finsh_error.o(.text) for finsh_error_init
    finsh_init.o(.text) refers to finsh_heap.o(.text) for finsh_heap_init
    finsh_init.o(.text) refers to finsh_vm.o(.bss) for finsh_vm_stack
    finsh_node.o(.text) refers to memseta.o(.text) for __aeabi_memclr4
    finsh_node.o(.text) refers to finsh_var.o(.text) for finsh_var_lookup
    finsh_node.o(.text) refers to finsh_vm.o(.text) for finsh_syscall_lookup
    finsh_node.o(.text) refers to finsh_error.o(.text) for finsh_error_set
    finsh_node.o(.text) refers to strlen.o(.text) for strlen
    finsh_node.o(.text) refers to finsh_heap.o(.text) for finsh_heap_allocate
    finsh_node.o(.text) refers to strncpy.o(.text) for strncpy
    finsh_node.o(.text) refers to finsh_node.o(.bss) for global_node_table
    finsh_ops.o(.text) refers to finsh_vm.o(.data) for finsh_sp
    finsh_ops.o(.constdata) refers to finsh_ops.o(.text) for OP_no_op
    finsh_parser.o(.text) refers to finsh_node.o(.text) for finsh_node_allocate
    finsh_parser.o(.text) refers to finsh_error.o(.text) for finsh_error_set
    finsh_parser.o(.text) refers to finsh_token.o(.text) for finsh_token_token
    finsh_parser.o(.text) refers to strncpy.o(.text) for strncpy
    finsh_parser.o(.text) refers to finsh_var.o(.text) for finsh_var_insert
    finsh_parser.o(.text) refers to memseta.o(.text) for __aeabi_memclr4
    finsh_token.o(.text) refers to memseta.o(.text) for __aeabi_memclr4
    finsh_token.o(.text) refers to strlen.o(.text) for strlen
    finsh_token.o(.text) refers to finsh_error.o(.text) for finsh_error_set
    finsh_token.o(.text) refers to atoi.o(.text) for atoi
    finsh_token.o(.text) refers to strcmp.o(.text) for strcmp
    finsh_token.o(.text) refers to strncpy.o(.text) for strncpy
    finsh_token.o(.text) refers to finsh_token.o(.constdata) for finsh_name_table
    finsh_token.o(.constdata) refers to finsh_token.o(.conststring) for .conststring
    finsh_var.o(.text) refers to memseta.o(.text) for __aeabi_memclr4
    finsh_var.o(.text) refers to strncmp.o(.text) for strncmp
    finsh_var.o(.text) refers to strncpy.o(.text) for strncpy
    finsh_var.o(.text) refers to mem.o(.text) for rt_malloc
    finsh_var.o(.text) refers to kservice.o(.text) for rt_strdup
    finsh_var.o(.text) refers to strcmp.o(.text) for strcmp
    finsh_var.o(.text) refers to strlen.o(.text) for strlen
    finsh_var.o(.text) refers to finsh_var.o(.bss) for global_variable
    finsh_var.o(.text) refers to finsh_var.o(.data) for global_sysvar_list
    finsh_var.o(.text) refers to symbol.o(.data) for _sysvar_table_begin
    finsh_vm.o(.text) refers to mem.o(.text) for rt_malloc
    finsh_vm.o(.text) refers to kservice.o(.text) for rt_strdup
    finsh_vm.o(.text) refers to strcmp.o(.text) for strcmp
    finsh_vm.o(.text) refers to strlen.o(.text) for strlen
    finsh_vm.o(.text) refers to strncmp.o(.text) for strncmp
    finsh_vm.o(.text) refers to finsh_vm.o(.bss) for finsh_vm_stack
    finsh_vm.o(.text) refers to finsh_vm.o(.data) for finsh_sp
    finsh_vm.o(.text) refers to finsh_ops.o(.constdata) for op_table
    finsh_vm.o(.text) refers to symbol.o(.data) for _syscall_table_begin
    shell.o(.text) refers to kservice.o(.text) for rt_kprintf
    shell.o(.text) refers to ipc.o(.text) for rt_sem_release
    shell.o(.text) refers to device.o(.text) for rt_device_find
    shell.o(.text) refers to cmd.o(.text) for list_prefix
    shell.o(.text) refers to finsh_parser.o(.text) for finsh_parser_run
    shell.o(.text) refers to finsh_error.o(.text) for finsh_errno
    shell.o(.text) refers to finsh_compiler.o(.text) for finsh_compiler_run
    shell.o(.text) refers to finsh_vm.o(.text) for finsh_vm_run
    shell.o(.text) refers to finsh_init.o(.text) for finsh_stack_bottom
    shell.o(.text) refers to memcpya.o(.text) for __aeabi_memcpy
    shell.o(.text) refers to memseta.o(.text) for __aeabi_memclr
    shell.o(.text) refers to strlen.o(.text) for strlen
    shell.o(.text) refers to shell.o(.data) for shell
    shell.o(.text) refers to shell.o(.constdata) for __FUNCTION__
    shell.o(.text) refers to mem.o(.text) for rt_malloc
    shell.o(.text) refers to thread.o(.text) for rt_thread_init
    shell.o(.text) refers to symbol.o(.data) for _syscall_table_begin
    shell.o(.text) refers to shell.o(.bss) for finsh_thread_stack
    shell.o(.rti_fn.3) refers to shell.o(.text) for finsh_system_init
    dfs.o(.text) refers to kservice.o(.text) for rt_memset
    dfs.o(.text) refers to ipc.o(.text) for rt_mutex_init
    dfs.o(.text) refers to strlen.o(.text) for strlen
    dfs.o(.text) refers to mem.o(.text) for rt_malloc
    dfs.o(.text) refers to dfs_fs.o(.text) for dfs_filesystem_lookup
    dfs.o(.text) refers to strcmp.o(.text) for strcmp
    dfs.o(.text) refers to dfs.o(.bss) for filesystem_operation_table
    dfs.o(.text) refers to dfs.o(.constdata) for __FUNCTION__
    dfs.o(.rti_fn.3) refers to dfs.o(.text) for dfs_init
    dfs_elm.o(.text) refers to device.o(.text) for rt_device_control
    dfs_elm.o(.text) refers to kservice.o(.text) for rt_kprintf
    dfs_elm.o(.text) refers to mem.o(.text) for rt_malloc
    dfs_elm.o(.text) refers to ff.o(.text) for f_mount
    dfs_elm.o(.text) refers to dfs_elm.o(.data) for disk
    dfs_elm.o(.text) refers to dfs_elm.o(.constdata) for .constdata
    dfs_elm.o(.text) refers to memseta.o(.text) for __aeabi_memclr4
    dfs_elm.o(.text) refers to mktime.o(.text) for mktime
    dfs_elm.o(.text) refers to dfs_fs.o(.text) for dfs_register
    dfs_elm.o(.text) refers to ipc.o(.text) for rt_mutex_create
    dfs_elm.o(.constdata) refers to dfs_elm.o(.conststring) for .conststring
    dfs_elm.o(.constdata) refers to dfs_elm.o(.text) for dfs_elm_mount
    dfs_elm.o(.rti_fn.4) refers to dfs_elm.o(.text) for elm_init
    dfs_file.o(.text) refers to dfs.o(.text) for dfs_normalize_path
    dfs_file.o(.text) refers to dfs_fs.o(.text) for dfs_filesystem_lookup
    dfs_file.o(.text) refers to mem.o(.text) for rt_free
    dfs_file.o(.text) refers to kservice.o(.text) for rt_strdup
    dfs_file.o(.text) refers to strcmp.o(.text) for strcmp
    dfs_file.o(.text) refers to dfs_posix.o(.text) for mkdir
    dfs_file.o(.text) refers to strrchr.o(.text) for strrchr
    dfs_file.o(.text) refers to dfs_file.o(.bss) for fd
    dfs_file.o(FSymTab) refers to dfs_file.o(.constdata) for __fsym_ls_name
    dfs_file.o(FSymTab) refers to dfs_file.o(.text) for ls
    dfs_fs.o(.text) refers to dfs.o(.text) for dfs_lock
    dfs_fs.o(.text) refers to strcmp.o(.text) for strcmp
    dfs_fs.o(.text) refers to kservice.o(.text) for rt_kprintf
    dfs_fs.o(.text) refers to strlen.o(.text) for strlen
    dfs_fs.o(.text) refers to strncmp.o(.text) for strncmp
    dfs_fs.o(.text) refers to device.o(.text) for rt_device_find
    dfs_fs.o(.text) refers to dfs_file.o(.text) for dfs_file_open
    dfs_fs.o(.text) refers to mem.o(.text) for rt_free
    dfs_fs.o(.text) refers to dfs.o(.bss) for filesystem_operation_table
    dfs_fs.o(.text) refers to dfs_fs.o(.constdata) for __FUNCTION__
    dfs_fs.o(FSymTab) refers to dfs_fs.o(.constdata) for __fsym_mkfs_name
    dfs_fs.o(FSymTab) refers to dfs_fs.o(.text) for mkfs
    dfs_posix.o(.text) refers to dfs.o(.text) for fd_new
    dfs_posix.o(.text) refers to kservice.o(.text) for rt_set_errno
    dfs_posix.o(.text) refers to dfs_file.o(.text) for dfs_file_open
    dfs_posix.o(.text) refers to dfs_fs.o(.text) for dfs_statfs
    dfs_posix.o(.text) refers to mem.o(.text) for rt_malloc
    dfs_posix.o(FSymTab) refers to dfs_posix.o(.constdata) for __fsym_mkdir_name
    dfs_posix.o(FSymTab) refers to dfs_posix.o(.text) for mkdir
    ff.o(.text) refers to dfs_elm.o(.text) for ff_req_grant
    ff.o(.text) refers to ff.o(.data) for FatFs
    ff.o(.text) refers to ff.o(.constdata) for vst
    dns.o(.text) refers to pbuf.o(.text) for pbuf_copy_partial
    dns.o(.text) refers to def.o(.text) for lwip_htons
    dns.o(.text) refers to ip_addr.o(.text) for ipaddr_addr
    dns.o(.text) refers to udp.o(.text) for udp_new
    dns.o(.text) refers to kservice.o(.text) for rt_kprintf
    dns.o(.text) refers to sys_arch.o(.text) for sys_arch_assert
    dns.o(.text) refers to dns.o(.data) for dns_pcb
    dns.o(.text) refers to dns.o(.bss) for dns_table
    dns.o(.text) refers to ip_addr.o(.constdata) for ip_addr_any
    dns.o(.text) refers to strcmp.o(.text) for strcmp
    dns.o(.text) refers to strlen.o(.text) for strlen
    dns.o(.text) refers to memcpya.o(.text) for __aeabi_memcpy
    init.o(.text) refers to sys_arch.o(.text) for sys_init
    init.o(.text) refers to netif.o(.text) for netif_init
    init.o(.text) refers to sockets.o(.text) for lwip_socket_init
    init.o(.text) refers to udp.o(.text) for udp_init
    init.o(.text) refers to tcp.o(.text) for tcp_init
    init.o(.text) refers to igmp.o(.text) for igmp_init
    init.o(.text) refers to dns.o(.text) for dns_init
    init.o(.text) refers to timers.o(.text) for sys_timeouts_init
    netif.o(.text) refers to tcp.o(.text) for tcp_abort
    netif.o(.text) refers to kservice.o(.text) for rt_kprintf
    netif.o(.text) refers to sys_arch.o(.text) for sys_arch_assert
    netif.o(.text) refers to igmp.o(.text) for igmp_start
    netif.o(.text) refers to etharp.o(.text) for etharp_cleanup_netif
    netif.o(.text) refers to tcp.o(.data) for tcp_active_pcbs
    netif.o(.text) refers to netif.o(.data) for netif_num
    pbuf.o(.text) refers to sys_arch.o(.text) for sys_arch_protect
    pbuf.o(.text) refers to tcp.o(.text) for tcp_segs_free
    pbuf.o(.text) refers to tcpip.o(.text) for tcpip_callback_with_block
    pbuf.o(.text) refers to kservice.o(.text) for rt_kprintf
    pbuf.o(.text) refers to mem.o(.text) for rt_free
    pbuf.o(.text) refers to pbuf.o(.data) for pbuf_free_ooseq_pending
    pbuf.o(.text) refers to tcp.o(.data) for tcp_active_pcbs
    pbuf.o(.text) refers to memp.o(.constdata) for memp_sizes
    pbuf.o(.text) refers to memcpya.o(.text) for __aeabi_memcpy
    pbuf.o(.text) refers to strlen.o(.text) for strlen
    raw.o(.text) refers to pbuf.o(.text) for pbuf_header
    raw.o(.text) refers to kservice.o(.text) for rt_kprintf
    raw.o(.text) refers to sys_arch.o(.text) for sys_arch_assert
    raw.o(.text) refers to ip.o(.text) for ip_route
    raw.o(.text) refers to mem.o(.text) for rt_free
    raw.o(.text) refers to memseta.o(.text) for __aeabi_memclr4
    raw.o(.text) refers to raw.o(.data) for raw_pcbs
    raw.o(.text) refers to ip.o(.data) for current_iphdr_dest
    raw.o(.text) refers to memp.o(.constdata) for memp_sizes
    sys.o(.text) refers to sys_arch.o(.text) for sys_sem_new
    tcp.o(.text) refers to pbuf.o(.text) for pbuf_free
    tcp.o(.text) refers to mem.o(.text) for rt_free
    tcp.o(.text) refers to kservice.o(.text) for rt_kprintf
    tcp.o(.text) refers to sys_arch.o(.text) for sys_arch_assert
    tcp.o(.text) refers to tcp_out.o(.text) for tcp_zero_window_probe
    tcp.o(.text) refers to tcp.o(.data) for tcp_ticks
    tcp.o(.text) refers to tcp.o(.constdata) for tcp_persist_backoff
    tcp.o(.text) refers to timers.o(.text) for tcp_timer_needed
    tcp.o(.text) refers to ip.o(.text) for ip_route
    tcp.o(.text) refers to memp.o(.constdata) for memp_sizes
    tcp.o(.text) refers to memcpya.o(.text) for __aeabi_memcpy4
    tcp.o(.text) refers to memseta.o(.text) for __aeabi_memclr4
    tcp.o(.constdata) refers to tcp.o(.conststring) for .conststring
    tcp.o(.constdata) refers to tcp.o(.data) for tcp_listen_pcbs
    tcp_in.o(.text) refers to def.o(.text) for lwip_ntohs
    tcp_in.o(.text) refers to tcp.o(.text) for tcp_segs_free
    tcp_in.o(.text) refers to pbuf.o(.text) for pbuf_realloc
    tcp_in.o(.text) refers to kservice.o(.text) for rt_kprintf
    tcp_in.o(.text) refers to sys_arch.o(.text) for sys_arch_assert
    tcp_in.o(.text) refers to tcp_out.o(.text) for tcp_rexmit_fast
    tcp_in.o(.text) refers to tcp_in.o(.data) for seqno
    tcp_in.o(.text) refers to tcp.o(.data) for tcp_ticks
    tcp_in.o(.text) refers to tcp_in.o(.bss) for inseg
    tcp_in.o(.text) refers to ip.o(.data) for current_iphdr_src
    tcp_in.o(.text) refers to timers.o(.text) for tcp_timer_needed
    tcp_in.o(.text) refers to ip_addr.o(.text) for ip4_addr_isbroadcast
    tcp_in.o(.text) refers to inet_chksum.o(.text) for inet_chksum_pseudo
    tcp_in.o(.text) refers to mem.o(.text) for rt_free
    tcp_out.o(.text) refers to pbuf.o(.text) for pbuf_alloc
    tcp_out.o(.text) refers to kservice.o(.text) for rt_kprintf
    tcp_out.o(.text) refers to sys_arch.o(.text) for sys_arch_assert
    tcp_out.o(.text) refers to def.o(.text) for lwip_htons
    tcp_out.o(.text) refers to mem.o(.text) for rt_malloc
    tcp_out.o(.text) refers to tcp.o(.text) for tcp_seg_free
    tcp_out.o(.text) refers to memp.o(.constdata) for memp_sizes
    tcp_out.o(.text) refers to tcp_out.o(.constdata) for .constdata
    tcp_out.o(.text) refers to memcpya.o(.text) for __aeabi_memcpy
    tcp_out.o(.text) refers to inet_chksum.o(.text) for inet_chksum_pseudo
    tcp_out.o(.text) refers to ip.o(.text) for ip_output
    tcp_out.o(.text) refers to tcp.o(.data) for tcp_ticks
    tcp_out.o(.text) refers to tcp_in.o(.data) for tcp_input_pcb
    timers.o(.text) refers to mem.o(.text) for rt_malloc
    timers.o(.text) refers to kservice.o(.text) for rt_kprintf
    timers.o(.text) refers to sys_arch.o(.text) for sys_arch_assert
    timers.o(.text) refers to tcp.o(.text) for tcp_tmr
    timers.o(.text) refers to etharp.o(.text) for etharp_tmr
    timers.o(.text) refers to igmp.o(.text) for igmp_tmr
    timers.o(.text) refers to dns.o(.text) for dns_tmr
    timers.o(.text) refers to memp.o(.constdata) for memp_sizes
    timers.o(.text) refers to timers.o(.data) for next_timeout
    timers.o(.text) refers to tcp.o(.data) for tcp_active_pcbs
    udp.o(.text) refers to pbuf.o(.text) for pbuf_header
    udp.o(.text) refers to ip_addr.o(.text) for ip4_addr_isbroadcast
    udp.o(.text) refers to def.o(.text) for lwip_ntohs
    udp.o(.text) refers to inet_chksum.o(.text) for inet_chksum_pseudo
    udp.o(.text) refers to kservice.o(.text) for rt_kprintf
    udp.o(.text) refers to sys_arch.o(.text) for sys_arch_assert
    udp.o(.text) refers to icmp.o(.text) for icmp_dest_unreach
    udp.o(.text) refers to udp.o(.data) for udp_port
    udp.o(.text) refers to ip.o(.data) for current_iphdr_dest
    udp.o(.text) refers to ip.o(.text) for ip_output_if
    udp.o(.text) refers to mem.o(.text) for rt_free
    udp.o(.text) refers to memseta.o(.text) for __aeabi_memclr4
    udp.o(.text) refers to memp.o(.constdata) for memp_sizes
    api_lib.o(.text) refers to api_msg.o(.text) for netconn_alloc
    api_lib.o(.text) refers to tcpip.o(.text) for tcpip_apimsg
    api_lib.o(.text) refers to kservice.o(.text) for rt_kprintf
    api_lib.o(.text) refers to sys_arch.o(.text) for sys_arch_assert
    api_lib.o(.text) refers to mem.o(.text) for rt_free
    api_lib.o(.text) refers to memp.o(.constdata) for memp_sizes
    api_msg.o(.text) refers to sys_arch.o(.text) for sys_mbox_valid
    api_msg.o(.text) refers to pbuf.o(.text) for pbuf_alloc
    api_msg.o(.text) refers to mem.o(.text) for rt_malloc
    api_msg.o(.text) refers to netbuf.o(.text) for netbuf_delete
    api_msg.o(.text) refers to kservice.o(.text) for rt_kprintf
    api_msg.o(.text) refers to tcp.o(.text) for tcp_recved
    api_msg.o(.text) refers to memp.o(.constdata) for memp_sizes
    api_msg.o(.text) refers to ip.o(.data) for current_iphdr_src
    api_msg.o(.text) refers to tcp_out.o(.text) for tcp_write
    api_msg.o(.text) refers to raw.o(.text) for raw_new
    api_msg.o(.text) refers to udp.o(.text) for udp_new
    api_msg.o(.text) refers to igmp.o(.text) for igmp_joingroup
    api_msg.o(.text) refers to strcmp.o(.text) for strcmp
    api_msg.o(.text) refers to dns.o(.text) for dns_gethostbyname
    err.o(.text) refers to err.o(.data) for err_strerr
    err.o(.data) refers to err.o(.conststring) for .conststring
    netbuf.o(.text) refers to mem.o(.text) for rt_malloc
    netbuf.o(.text) refers to pbuf.o(.text) for pbuf_free
    netbuf.o(.text) refers to kservice.o(.text) for rt_kprintf
    netbuf.o(.text) refers to sys_arch.o(.text) for sys_arch_assert
    netbuf.o(.text) refers to memp.o(.constdata) for memp_sizes
    netdb.o(.text) refers to api_lib.o(.text) for netconn_gethostbyname
    netdb.o(.text) refers to strlen.o(.text) for strlen
    netdb.o(.text) refers to memcpya.o(.text) for __aeabi_memcpy
    netdb.o(.text) refers to mem.o(.text) for rt_free
    netdb.o(.text) refers to atoi.o(.text) for atoi
    netdb.o(.text) refers to kservice.o(.text) for rt_kprintf
    netdb.o(.text) refers to sys_arch.o(.text) for sys_arch_assert
    netdb.o(.text) refers to memseta.o(.text) for __aeabi_memclr4
    netdb.o(.text) refers to def.o(.text) for lwip_htons
    netdb.o(.text) refers to netdb.o(.data) for h_errno
    netdb.o(.text) refers to netdb.o(.bss) for s_hostent
    netdb.o(.text) refers to memp.o(.constdata) for memp_sizes
    netifapi.o(.text) refers to netif.o(.text) for netif_add
    netifapi.o(.text) refers to sys_arch.o(.text) for sys_sem_signal
    netifapi.o(.text) refers to tcpip.o(.text) for tcpip_netifapi
    sockets.o(.text) refers to kservice.o(.text) for _rt_errno
    sockets.o(.text) refers to sys_arch.o(.text) for sys_arch_protect
    sockets.o(.text) refers to pbuf.o(.text) for pbuf_free
    sockets.o(.text) refers to netbuf.o(.text) for netbuf_delete
    sockets.o(.text) refers to api_lib.o(.text) for netconn_accept
    sockets.o(.text) refers to def.o(.text) for lwip_htons
    sockets.o(.text) refers to sockets.o(.bss) for sockets
    sockets.o(.text) refers to sockets.o(.data) for select_cb_list
    sockets.o(.text) refers to sockets.o(.constdata) for err_to_errno_table
    sockets.o(.text) refers to memcpya.o(.text) for __aeabi_memcpy
    sockets.o(.text) refers to tcpip.o(.text) for tcpip_callback_with_block
    sockets.o(.text) refers to igmp.o(.text) for igmp_joingroup
    tcpip.o(.text) refers to timers.o(.text) for sys_timeouts_mbox_fetch
    tcpip.o(.text) refers to etharp.o(.text) for ethernet_input
    tcpip.o(.text) refers to ip.o(.text) for ip_input
    tcpip.o(.text) refers to mem.o(.text) for rt_free
    tcpip.o(.text) refers to kservice.o(.text) for rt_kprintf
    tcpip.o(.text) refers to sys_arch.o(.text) for sys_arch_assert
    tcpip.o(.text) refers to init.o(.text) for lwip_init
    tcpip.o(.text) refers to pbuf.o(.text) for pbuf_free
    tcpip.o(.text) refers to tcpip.o(.data) for tcpip_init_done
    tcpip.o(.text) refers to memp.o(.constdata) for memp_sizes
    icmp.o(.text) refers to pbuf.o(.text) for pbuf_header
    icmp.o(.text) refers to ip_addr.o(.text) for ip4_addr_isbroadcast
    icmp.o(.text) refers to inet_chksum.o(.text) for inet_chksum_pbuf
    icmp.o(.text) refers to kservice.o(.text) for rt_kprintf
    icmp.o(.text) refers to sys_arch.o(.text) for sys_arch_assert
    icmp.o(.text) refers to ip.o(.text) for ip_output_if
    icmp.o(.text) refers to memcpya.o(.text) for __aeabi_memcpy
    icmp.o(.text) refers to ip.o(.data) for current_iphdr_dest
    igmp.o(.text) refers to mem.o(.text) for rt_malloc
    igmp.o(.text) refers to rand.o(.text) for rand
    igmp.o(.text) refers to pbuf.o(.text) for pbuf_header
    igmp.o(.text) refers to inet_chksum.o(.text) for inet_chksum
    igmp.o(.text) refers to ip.o(.text) for ip_output_if_opt
    igmp.o(.text) refers to kservice.o(.text) for rt_kprintf
    igmp.o(.text) refers to sys_arch.o(.text) for sys_arch_assert
    igmp.o(.text) refers to igmp.o(.data) for allsystems
    igmp.o(.text) refers to memp.o(.constdata) for memp_sizes
    igmp.o(.text) refers to ip_addr.o(.constdata) for ip_addr_any
    igmp.o(.text) refers to netif.o(.data) for netif_list
    inet_chksum.o(.text) refers to def.o(.text) for lwip_htons
    inet_chksum.o(.text) refers to kservice.o(.text) for rt_kprintf
    inet_chksum.o(.text) refers to sys_arch.o(.text) for sys_arch_assert
    ip.o(.text) refers to pbuf.o(.text) for pbuf_free
    ip.o(.text) refers to def.o(.text) for lwip_ntohs
    ip.o(.text) refers to inet_chksum.o(.text) for inet_chksum
    ip.o(.text) refers to igmp.o(.text) for igmp_lookfor_group
    ip.o(.text) refers to ip_addr.o(.text) for ip4_addr_isbroadcast
    ip.o(.text) refers to raw.o(.text) for raw_input
    ip.o(.text) refers to udp.o(.text) for udp_input
    ip.o(.text) refers to tcp_in.o(.text) for tcp_input
    ip.o(.text) refers to icmp.o(.text) for icmp_input
    ip.o(.text) refers to kservice.o(.text) for rt_kprintf
    ip.o(.text) refers to sys_arch.o(.text) for sys_arch_assert
    ip.o(.text) refers to memcpya.o(.text) for __aeabi_memcpy
    ip.o(.text) refers to memseta.o(.text) for __aeabi_memclr
    ip.o(.text) refers to netif.o(.data) for netif_list
    ip.o(.text) refers to ip.o(.data) for current_iphdr_dest
    ip_addr.o(.text) refers to def.o(.text) for lwip_htonl
    ip_addr.o(.text) refers to kservice.o(.text) for rt_kprintf
    ip_addr.o(.text) refers to sys_arch.o(.text) for sys_arch_assert
    ip_addr.o(.text) refers to ip_addr.o(.bss) for str
    sys_arch.o(.text) refers to device.o(.text) for rt_device_init
    sys_arch.o(.text) refers to thread.o(.text) for rt_thread_self
    sys_arch.o(.text) refers to kservice.o(.text) for rt_kprintf
    sys_arch.o(.text) refers to scheduler.o(.text) for rt_enter_critical
    sys_arch.o(.text) refers to netif.o(.text) for netif_add
    sys_arch.o(.text) refers to ipc.o(.text) for rt_sem_release
    sys_arch.o(.text) refers to tcpip.o(.text) for tcpip_init
    sys_arch.o(.text) refers to netifapi.o(.text) for netifapi_netif_set_addr
    sys_arch.o(.text) refers to context_rvds.o(.text) for rt_hw_interrupt_disable
    sys_arch.o(.text) refers to irq.o(.text) for rt_interrupt_get_nest
    sys_arch.o(.text) refers to clock.o(.text) for rt_tick_get
    sys_arch.o(.text) refers to sys_arch.o(.constdata) for __FUNCTION__
    sys_arch.o(.text) refers to object.o(.data) for rt_object_container
    sys_arch.o(.text) refers to netif.o(.data) for netif_default
    sys_arch.o(.text) refers to sys_arch.o(.data) for counter
    sys_arch.o(.rti_fn.3) refers to sys_arch.o(.text) for lwip_system_init
    etharp.o(.text) refers to kservice.o(.text) for rt_kprintf
    etharp.o(.text) refers to sys_arch.o(.text) for sys_arch_assert
    etharp.o(.text) refers to pbuf.o(.text) for pbuf_free
    etharp.o(.text) refers to mem.o(.text) for rt_free
    etharp.o(.text) refers to etharp.o(.bss) for arp_table
    etharp.o(.text) refers to etharp.o(.constdata) for ethzero
    etharp.o(.text) refers to ip_addr.o(.text) for ip4_addr_isbroadcast
    etharp.o(.text) refers to def.o(.text) for lwip_htons
    etharp.o(.text) refers to etharp.o(.data) for etharp_cached_entry
    etharp.o(.text) refers to memp.o(.constdata) for memp_sizes
    etharp.o(.text) refers to memcmp.o(.text) for memcmp
    etharp.o(.text) refers to ip.o(.text) for ip_input
    ethernetif.o(.text) refers to kservice.o(.text) for rt_kprintf
    ethernetif.o(.text) refers to ipc.o(.text) for rt_mb_send
    ethernetif.o(.text) refers to device.o(.text) for rt_device_init
    ethernetif.o(.text) refers to netif.o(.text) for netif_set_default
    ethernetif.o(.text) refers to mem.o(.text) for rt_malloc
    ethernetif.o(.text) refers to thread.o(.text) for rt_thread_find
    ethernetif.o(.text) refers to netifapi.o(.text) for netifapi_netif_add
    ethernetif.o(.text) refers to context_rvds.o(.text) for rt_hw_interrupt_disable
    ethernetif.o(.text) refers to pbuf.o(.text) for pbuf_free
    ethernetif.o(.text) refers to sys_arch.o(.text) for sys_arch_assert
    ethernetif.o(.text) refers to ethernetif.o(.constdata) for __FUNCTION__
    ethernetif.o(.text) refers to ethernetif.o(.bss) for eth_tx_thread_mb
    ethernetif.o(.text) refers to netif.o(.data) for netif_default
    ethernetif.o(.text) refers to etharp.o(.text) for etharp_output
    ethernetif.o(.text) refers to tcpip.o(.text) for tcpip_input
    ethernetif.o(.text) refers to strlen.o(.text) for strlen
    ethernetif.o(.text) refers to strncmp.o(.text) for strncmp
    ethernetif.o(.text) refers to ip_addr.o(.text) for ipaddr_aton
    ethernetif.o(.text) refers to dns.o(.text) for dns_setserver
    ethernetif.o(.text) refers to scheduler.o(.text) for rt_enter_critical
    ethernetif.o(.text) refers to strcpy.o(.text) for strcpy
    ethernetif.o(.text) refers to tcp.o(.data) for tcp_active_pcbs
    ethernetif.o(.text) refers to tcp.o(.constdata) for tcp_state_str
    ethernetif.o(.rti_fn.2) refers to ethernetif.o(.text) for eth_system_device_init
    ethernetif.o(FSymTab) refers to ethernetif.o(.constdata) for __fsym_set_if_name
    ethernetif.o(FSymTab) refers to ethernetif.o(.text) for set_if
    entry.o(.ARM.Collect$$$$00000000) refers (Special) to entry7.o(.ARM.Collect$$$$00000007) for _main_init
    entry.o(.ARM.Collect$$$$00000000) refers (Special) to entry5.o(.ARM.Collect$$$$00000004) for _main_scatterload
    entry.o(.ARM.Collect$$$$00000000) refers (Special) to entry2.o(.ARM.Collect$$$$00000001) for _main_stk
    rand.o(.text) refers to rand.o(.data) for .data
    mktime.o(.text) refers to localtime_i.o(.text) for _localtime
    mktime.o(.text) refers to mktime.o(.constdata) for .constdata
    atoi.o(.text) refers to errno.o(i.__aeabi_errno_addr) for __aeabi_errno_addr
    atoi.o(.text) refers to strtol.o(.text) for strtol
    entry2.o(.ARM.Collect$$$$00000001) refers to entry2.o(.ARM.Collect$$$$00002712) for __lit__00000000
    entry2.o(.ARM.Collect$$$$00002712) refers to startup_stm32f10x_hd.o(STACK) for __initial_sp
    entry2.o(__vectab_stack_and_reset_area) refers to startup_stm32f10x_hd.o(STACK) for __initial_sp
    entry2.o(__vectab_stack_and_reset_area) refers to entry.o(.ARM.Collect$$$$00000000) for __main
    entry5.o(.ARM.Collect$$$$00000004) refers to init.o(.text) for __scatterload
    entry7.o(.ARM.Collect$$$$00000007) refers to startup.o(.text) for main
    localtime_w.o(.text) refers to localtime_i.o(.text) for _localtime
    localtime_w.o(.text) refers to localtime_w.o(.bss) for .bss
    localtime_i.o(.text) refers to localtime_i.o(.constdata) for .constdata
    errno.o(i.__aeabi_errno_addr) refers to errno.o(.data) for .data
    errno.o(i.__read_errno) refers to errno.o(.data) for .data
    errno.o(i.__set_errno) refers to errno.o(.data) for .data
    strtol.o(.text) refers to ctype_o.o(.text) for __rt_ctype_table
    strtol.o(.text) refers to _strtoul.o(.text) for _strtoul
    strtol.o(.text) refers to errno.o(i.__aeabi_errno_addr) for __aeabi_errno_addr
    init.o(.text) refers to entry5.o(.ARM.Collect$$$$00000004) for __main_after_scatterload
    ctype_o.o(.text) refers to ctype_o.o(.constdata) for .constdata
    ctype_o.o(.constdata) refers to ctype_o.o(.constdata) for __ctype_table
    isalnum_o.o(.text) refers to ctype_o.o(.text) for __rt_ctype_table
    isalpha_o.o(.text) refers to ctype_o.o(.text) for __rt_ctype_table
    isblank_o.o(.text) refers to ctype_o.o(.constdata) for __ctype_table
    iscntrl_o.o(.text) refers to ctype_o.o(.text) for __rt_ctype_table
    isdigit_o.o(.text) refers to ctype_o.o(.text) for __rt_ctype_table
    isgraph_o.o(.text) refers to ctype_o.o(.text) for __rt_ctype_table
    islower_o.o(.text) refers to ctype_o.o(.text) for __rt_ctype_table
    isprint_o.o(.text) refers to ctype_o.o(.text) for __rt_ctype_table
    ispunct_o.o(.text) refers to ctype_o.o(.text) for __rt_ctype_table
    isspace_o.o(.text) refers to ctype_o.o(.text) for __rt_ctype_table
    isupper_o.o(.text) refers to ctype_o.o(.text) for __rt_ctype_table
    isxdigit_o.o(.text) refers to ctype_o.o(.text) for __rt_ctype_table
    _strtoul.o(.text) refers to _chval.o(.text) for _chval
    _strtoul.o(.text) refers to errno.o(i.__aeabi_errno_addr) for __aeabi_errno_addr


==============================================================================

Removing Unused input sections from the image.

    Removing startup_stm32f10x_hd.o(HEAP), (512 bytes).
    Removing backtrace.o(.text), (2 bytes).
    Removing div0.o(.text), (4 bytes).
    Removing showmem.o(.text), (164 bytes).
    Removing showmem.o(.constdata), (18 bytes).
    Removing echo.o(.text), (284 bytes).
    Removing echo.o(.bss), (2164 bytes).
    Removing stm32f10x_adc.o(.text), (1088 bytes).
    Removing stm32f10x_bkp.o(.text), (196 bytes).
    Removing stm32f10x_can.o(.text), (2580 bytes).
    Removing stm32f10x_cec.o(.text), (312 bytes).
    Removing stm32f10x_crc.o(.text), (72 bytes).
    Removing stm32f10x_dac.o(.text), (424 bytes).
    Removing stm32f10x_dbgmcu.o(.text), (48 bytes).
    Removing stm32f10x_dma.o(.text), (584 bytes).
    Removing stm32f10x_flash.o(.text), (1480 bytes).
    Removing stm32f10x_fsmc.o(.text), (1560 bytes).
    Removing stm32f10x_i2c.o(.text), (1008 bytes).
    Removing stm32f10x_iwdg.o(.text), (64 bytes).
    Removing stm32f10x_pwr.o(.text), (216 bytes).
    Removing stm32f10x_rtc.o(.text), (376 bytes).
    Removing stm32f10x_sdio.o(.text), (472 bytes).
    Removing stm32f10x_tim.o(.text), (3502 bytes).
    Removing stm32f10x_wwdg.o(.text), (136 bytes).
    Removing core_cm3.o(.emb_text), (32 bytes).
    Removing mempool.o(.text), (1072 bytes).
    Removing mempool.o(.constdata), (62 bytes).
    Removing mempool.o(.data), (8 bytes).
    Removing spi_flash_w25qxx.o(.text), (1636 bytes).
    Removing spi_flash_w25qxx.o(.bss), (116 bytes).
    Removing spi_flash_w25qxx.o(.constdata), (39 bytes).
    Removing rt_spi_flash_device.o(.text), (172 bytes).
    Removing rt_spi_flash_device.o(.bss), (188 bytes).
    Removing rt_spi_flash_device.o(.data), (8 bytes).
    Removing lcd1602.o(.data), (1 bytes).
    Removing completion.o(.text), (548 bytes).
    Removing completion.o(.constdata), (57 bytes).
    Removing pipe.o(.text), (1300 bytes).
    Removing pipe.o(.constdata), (86 bytes).
    Removing portal.o(.text), (868 bytes).
    Removing portal.o(.constdata), (95 bytes).
    Removing ringbuffer.o(.text), (1316 bytes).
    Removing ringbuffer.o(.constdata), (151 bytes).
    Removing shell.o(.rti_fn.3), (4 bytes).
    Removing dfs.o(.rti_fn.3), (4 bytes).
    Removing dfs_elm.o(.text), (2604 bytes).
    Removing dfs_elm.o(.constdata), (255 bytes).
    Removing dfs_elm.o(.conststring), (4 bytes).
    Removing dfs_elm.o(.data), (4 bytes).
    Removing dfs_elm.o(.rti_fn.4), (4 bytes).
    Removing ff.o(.text), (9424 bytes).
    Removing ff.o(.constdata), (44 bytes).
    Removing ff.o(.data), (6 bytes).
    Removing sys.o(.text), (36 bytes).
    Removing err.o(.text), (16 bytes).
    Removing err.o(.conststring), (274 bytes).
    Removing err.o(.data), (64 bytes).
    Removing netdb.o(.text), (668 bytes).
    Removing netdb.o(.bss), (20 bytes).
    Removing netdb.o(.data), (20 bytes).
    Removing sys_arch.o(.rti_fn.3), (4 bytes).
    Removing ethernetif.o(.rti_fn.2), (4 bytes).

62 unused section(s) (total 38480 bytes) removed from the image.

==============================================================================

Image Symbol Table

    Local Symbols

    Symbol Name                              Value     Ov Type        Size  Object(Section)

    ../../../cmprslib/zerorunl2.c            0x00000000   Number         0  __dczerorl2.o ABSOLUTE
    ../../microlib/ctype/ctype.c             0x00000000   Number         0  isalpha_o.o ABSOLUTE
    ../../microlib/ctype/ctype.c             0x00000000   Number         0  ctype_o.o ABSOLUTE
    ../../microlib/ctype/ctype.c             0x00000000   Number         0  ispunct_o.o ABSOLUTE
    ../../microlib/ctype/ctype.c             0x00000000   Number         0  isalnum_o.o ABSOLUTE
    ../../microlib/ctype/ctype.c             0x00000000   Number         0  isxdigit_o.o ABSOLUTE
    ../../microlib/ctype/ctype.c             0x00000000   Number         0  isgraph_o.o ABSOLUTE
    ../../microlib/ctype/ctype.c             0x00000000   Number         0  isprint_o.o ABSOLUTE
    ../../microlib/ctype/ctype.c             0x00000000   Number         0  isblank_o.o ABSOLUTE
    ../../microlib/ctype/ctype.c             0x00000000   Number         0  iscntrl_o.o ABSOLUTE
    ../../microlib/ctype/ctype.c             0x00000000   Number         0  isdigit_o.o ABSOLUTE
    ../../microlib/ctype/ctype.c             0x00000000   Number         0  islower_o.o ABSOLUTE
    ../../microlib/ctype/ctype.c             0x00000000   Number         0  isspace_o.o ABSOLUTE
    ../../microlib/ctype/ctype.c             0x00000000   Number         0  isupper_o.o ABSOLUTE
    ../../microlib/errno.c                   0x00000000   Number         0  errno.o ABSOLUTE
    ../../microlib/init/entry.s              0x00000000   Number         0  entry2.o ABSOLUTE
    ../../microlib/init/entry.s              0x00000000   Number         0  entry5.o ABSOLUTE
    ../../microlib/init/entry.s              0x00000000   Number         0  entry.o ABSOLUTE
    ../../microlib/init/entry.s              0x00000000   Number         0  entry7.o ABSOLUTE
    ../../microlib/stdlib/rand.c             0x00000000   Number         0  rand.o ABSOLUTE
    ../../microlib/string/memcmp.c           0x00000000   Number         0  memcmp.o ABSOLUTE
    ../../microlib/string/memcpy.c           0x00000000   Number         0  memcpyb.o ABSOLUTE
    ../../microlib/string/memcpy.c           0x00000000   Number         0  memcpya.o ABSOLUTE
    ../../microlib/string/memset.c           0x00000000   Number         0  memseta.o ABSOLUTE
    ../../microlib/string/strcmp.c           0x00000000   Number         0  strcmp.o ABSOLUTE
    ../../microlib/string/strcpy.c           0x00000000   Number         0  strcpy.o ABSOLUTE
    ../../microlib/string/strlen.c           0x00000000   Number         0  strlen.o ABSOLUTE
    ../../microlib/string/strncmp.c          0x00000000   Number         0  strncmp.o ABSOLUTE
    ../../microlib/string/strncpy.c          0x00000000   Number         0  strncpy.o ABSOLUTE
    ../../microlib/string/strrchr.c          0x00000000   Number         0  strrchr.o ABSOLUTE
    ../../microlib/time/localtime.c          0x00000000   Number         0  localtime_w.o ABSOLUTE
    ../../microlib/time/localtime.c          0x00000000   Number         0  localtime_i.o ABSOLUTE
    ../../microlib/time/mktime.c             0x00000000   Number         0  mktime.o ABSOLUTE
    ../../scanf.c                            0x00000000   Number         0  atoi.o ABSOLUTE
    ../../scanf.c                            0x00000000   Number         0  _strtoul.o ABSOLUTE
    ../../scanf.c                            0x00000000   Number         0  _chval.o ABSOLUTE
    ../../scanf.c                            0x00000000   Number         0  strtol.o ABSOLUTE
    ..\CMSIS\core_cm3.c                      0x00000000   Number         0  core_cm3.o ABSOLUTE
    ..\CMSIS\startup\backtrace.c             0x00000000   Number         0  backtrace.o ABSOLUTE
    ..\CMSIS\startup\context_rvds.S          0x00000000   Number         0  context_rvds.o ABSOLUTE
    ..\CMSIS\startup\cpuport.c               0x00000000   Number         0  cpuport.o ABSOLUTE
    ..\CMSIS\startup\div0.c                  0x00000000   Number         0  div0.o ABSOLUTE
    ..\CMSIS\startup\showmem.c               0x00000000   Number         0  showmem.o ABSOLUTE
    ..\CMSIS\startup\startup_stm32f10x_hd.s  0x00000000   Number         0  startup_stm32f10x_hd.o ABSOLUTE
    ..\CMSIS\system_stm32f10x.c              0x00000000   Number         0  system_stm32f10x.o ABSOLUTE
    ..\DeviceDrivers\completion.c            0x00000000   Number         0  completion.o ABSOLUTE
    ..\DeviceDrivers\dataqueue.c             0x00000000   Number         0  dataqueue.o ABSOLUTE
    ..\DeviceDrivers\pipe.c                  0x00000000   Number         0  pipe.o ABSOLUTE
    ..\DeviceDrivers\portal.c                0x00000000   Number         0  portal.o ABSOLUTE
    ..\DeviceDrivers\ringbuffer.c            0x00000000   Number         0  ringbuffer.o ABSOLUTE
    ..\DeviceDrivers\serial.c                0x00000000   Number         0  serial.o ABSOLUTE
    ..\FWlib\src\misc.c                      0x00000000   Number         0  misc.o ABSOLUTE
    ..\FWlib\src\stm32f10x_adc.c             0x00000000   Number         0  stm32f10x_adc.o ABSOLUTE
    ..\FWlib\src\stm32f10x_bkp.c             0x00000000   Number         0  stm32f10x_bkp.o ABSOLUTE
    ..\FWlib\src\stm32f10x_can.c             0x00000000   Number         0  stm32f10x_can.o ABSOLUTE
    ..\FWlib\src\stm32f10x_cec.c             0x00000000   Number         0  stm32f10x_cec.o ABSOLUTE
    ..\FWlib\src\stm32f10x_crc.c             0x00000000   Number         0  stm32f10x_crc.o ABSOLUTE
    ..\FWlib\src\stm32f10x_dac.c             0x00000000   Number         0  stm32f10x_dac.o ABSOLUTE
    ..\FWlib\src\stm32f10x_dbgmcu.c          0x00000000   Number         0  stm32f10x_dbgmcu.o ABSOLUTE
    ..\FWlib\src\stm32f10x_dma.c             0x00000000   Number         0  stm32f10x_dma.o ABSOLUTE
    ..\FWlib\src\stm32f10x_exti.c            0x00000000   Number         0  stm32f10x_exti.o ABSOLUTE
    ..\FWlib\src\stm32f10x_flash.c           0x00000000   Number         0  stm32f10x_flash.o ABSOLUTE
    ..\FWlib\src\stm32f10x_fsmc.c            0x00000000   Number         0  stm32f10x_fsmc.o ABSOLUTE
    ..\FWlib\src\stm32f10x_gpio.c            0x00000000   Number         0  stm32f10x_gpio.o ABSOLUTE
    ..\FWlib\src\stm32f10x_i2c.c             0x00000000   Number         0  stm32f10x_i2c.o ABSOLUTE
    ..\FWlib\src\stm32f10x_iwdg.c            0x00000000   Number         0  stm32f10x_iwdg.o ABSOLUTE
    ..\FWlib\src\stm32f10x_pwr.c             0x00000000   Number         0  stm32f10x_pwr.o ABSOLUTE
    ..\FWlib\src\stm32f10x_rcc.c             0x00000000   Number         0  stm32f10x_rcc.o ABSOLUTE
    ..\FWlib\src\stm32f10x_rtc.c             0x00000000   Number         0  stm32f10x_rtc.o ABSOLUTE
    ..\FWlib\src\stm32f10x_sdio.c            0x00000000   Number         0  stm32f10x_sdio.o ABSOLUTE
    ..\FWlib\src\stm32f10x_spi.c             0x00000000   Number         0  stm32f10x_spi.o ABSOLUTE
    ..\FWlib\src\stm32f10x_tim.c             0x00000000   Number         0  stm32f10x_tim.o ABSOLUTE
    ..\FWlib\src\stm32f10x_usart.c           0x00000000   Number         0  stm32f10x_usart.o ABSOLUTE
    ..\FWlib\src\stm32f10x_wwdg.c            0x00000000   Number         0  stm32f10x_wwdg.o ABSOLUTE
    ..\\CMSIS\\core_cm3.c                    0x00000000   Number         0  core_cm3.o ABSOLUTE
    ..\components\components.c               0x00000000   Number         0  components.o ABSOLUTE
    ..\dfs\dfs.c                             0x00000000   Number         0  dfs.o ABSOLUTE
    ..\dfs\dfs_elm.c                         0x00000000   Number         0  dfs_elm.o ABSOLUTE
    ..\dfs\dfs_file.c                        0x00000000   Number         0  dfs_file.o ABSOLUTE
    ..\dfs\dfs_fs.c                          0x00000000   Number         0  dfs_fs.o ABSOLUTE
    ..\dfs\dfs_posix.c                       0x00000000   Number         0  dfs_posix.o ABSOLUTE
    ..\dfs\ff.c                              0x00000000   Number         0  ff.o ABSOLUTE
    ..\drivers\IIC_CS4385.c                  0x00000000   Number         0  iic_cs4385.o ABSOLUTE
    ..\drivers\board.c                       0x00000000   Number         0  board.o ABSOLUTE
    ..\drivers\enc28j60.c                    0x00000000   Number         0  enc28j60.o ABSOLUTE
    ..\drivers\key_input.c                   0x00000000   Number         0  key_input.o ABSOLUTE
    ..\drivers\led.c                         0x00000000   Number         0  led.o ABSOLUTE
    ..\drivers\rt_spi_flash_device.c         0x00000000   Number         0  rt_spi_flash_device.o ABSOLUTE
    ..\drivers\rt_stm32f10x_spi.c            0x00000000   Number         0  rt_stm32f10x_spi.o ABSOLUTE
    ..\drivers\spi_core.c                    0x00000000   Number         0  spi_core.o ABSOLUTE
    ..\drivers\spi_dev.c                     0x00000000   Number         0  spi_dev.o ABSOLUTE
    ..\drivers\spi_flash_w25qxx.c            0x00000000   Number         0  spi_flash_w25qxx.o ABSOLUTE
    ..\drivers\spi_instruction.c             0x00000000   Number         0  spi_instruction.o ABSOLUTE
    ..\drivers\usart.c                       0x00000000   Number         0  usart.o ABSOLUTE
    ..\finsh\cmd.c                           0x00000000   Number         0  cmd.o ABSOLUTE
    ..\finsh\finsh_compiler.c                0x00000000   Number         0  finsh_compiler.o ABSOLUTE
    ..\finsh\finsh_error.c                   0x00000000   Number         0  finsh_error.o ABSOLUTE
    ..\finsh\finsh_heap.c                    0x00000000   Number         0  finsh_heap.o ABSOLUTE
    ..\finsh\finsh_init.c                    0x00000000   Number         0  finsh_init.o ABSOLUTE
    ..\finsh\finsh_node.c                    0x00000000   Number         0  finsh_node.o ABSOLUTE
    ..\finsh\finsh_ops.c                     0x00000000   Number         0  finsh_ops.o ABSOLUTE
    ..\finsh\finsh_parser.c                  0x00000000   Number         0  finsh_parser.o ABSOLUTE
    ..\finsh\finsh_token.c                   0x00000000   Number         0  finsh_token.o ABSOLUTE
    ..\finsh\finsh_var.c                     0x00000000   Number         0  finsh_var.o ABSOLUTE
    ..\finsh\finsh_vm.c                      0x00000000   Number         0  finsh_vm.o ABSOLUTE
    ..\finsh\msh.c                           0x00000000   Number         0  msh.o ABSOLUTE
    ..\finsh\msh_cmd.c                       0x00000000   Number         0  msh_cmd.o ABSOLUTE
    ..\finsh\shell.c                         0x00000000   Number         0  shell.o ABSOLUTE
    ..\finsh\symbol.c                        0x00000000   Number         0  symbol.o ABSOLUTE
    ..\kernel\clock.c                        0x00000000   Number         0  clock.o ABSOLUTE
    ..\kernel\device.c                       0x00000000   Number         0  device.o ABSOLUTE
    ..\kernel\idle.c                         0x00000000   Number         0  idle.o ABSOLUTE
    ..\kernel\ipc.c                          0x00000000   Number         0  ipc.o ABSOLUTE
    ..\kernel\irq.c                          0x00000000   Number         0  irq.o ABSOLUTE
    ..\kernel\kservice.c                     0x00000000   Number         0  kservice.o ABSOLUTE
    ..\kernel\mem.c                          0x00000000   Number         0  mem.o ABSOLUTE
    ..\kernel\memheap.c                      0x00000000   Number         0  memheap.o ABSOLUTE
    ..\kernel\mempool.c                      0x00000000   Number         0  mempool.o ABSOLUTE
    ..\kernel\module.c                       0x00000000   Number         0  module.o ABSOLUTE
    ..\kernel\object.c                       0x00000000   Number         0  object.o ABSOLUTE
    ..\kernel\scheduler.c                    0x00000000   Number         0  scheduler.o ABSOLUTE
    ..\kernel\slab.c                         0x00000000   Number         0  slab.o ABSOLUTE
    ..\kernel\thread.c                       0x00000000   Number         0  thread.o ABSOLUTE
    ..\kernel\timer.c                        0x00000000   Number         0  timer.o ABSOLUTE
    ..\lwip\src\api\api_lib.c                0x00000000   Number         0  api_lib.o ABSOLUTE
    ..\lwip\src\api\api_msg.c                0x00000000   Number         0  api_msg.o ABSOLUTE
    ..\lwip\src\api\err.c                    0x00000000   Number         0  err.o ABSOLUTE
    ..\lwip\src\api\netbuf.c                 0x00000000   Number         0  netbuf.o ABSOLUTE
    ..\lwip\src\api\netdb.c                  0x00000000   Number         0  netdb.o ABSOLUTE
    ..\lwip\src\api\netifapi.c               0x00000000   Number         0  netifapi.o ABSOLUTE
    ..\lwip\src\api\sockets.c                0x00000000   Number         0  sockets.o ABSOLUTE
    ..\lwip\src\api\tcpip.c                  0x00000000   Number         0  tcpip.o ABSOLUTE
    ..\lwip\src\arch\sys_arch.c              0x00000000   Number         0  sys_arch.o ABSOLUTE
    ..\lwip\src\core\def.c                   0x00000000   Number         0  def.o ABSOLUTE
    ..\lwip\src\core\dhcp.c                  0x00000000   Number         0  dhcp.o ABSOLUTE
    ..\lwip\src\core\dns.c                   0x00000000   Number         0  dns.o ABSOLUTE
    ..\lwip\src\core\init.c                  0x00000000   Number         0  init.o ABSOLUTE
    ..\lwip\src\core\ipv4\autoip.c           0x00000000   Number         0  autoip.o ABSOLUTE
    ..\lwip\src\core\ipv4\icmp.c             0x00000000   Number         0  icmp.o ABSOLUTE
    ..\lwip\src\core\ipv4\igmp.c             0x00000000   Number         0  igmp.o ABSOLUTE
    ..\lwip\src\core\ipv4\inet.c             0x00000000   Number         0  inet.o ABSOLUTE
    ..\lwip\src\core\ipv4\inet_chksum.c      0x00000000   Number         0  inet_chksum.o ABSOLUTE
    ..\lwip\src\core\ipv4\ip.c               0x00000000   Number         0  ip.o ABSOLUTE
    ..\lwip\src\core\ipv4\ip_addr.c          0x00000000   Number         0  ip_addr.o ABSOLUTE
    ..\lwip\src\core\ipv4\ip_frag.c          0x00000000   Number         0  ip_frag.o ABSOLUTE
    ..\lwip\src\core\memp.c                  0x00000000   Number         0  memp.o ABSOLUTE
    ..\lwip\src\core\netif.c                 0x00000000   Number         0  netif.o ABSOLUTE
    ..\lwip\src\core\pbuf.c                  0x00000000   Number         0  pbuf.o ABSOLUTE
    ..\lwip\src\core\raw.c                   0x00000000   Number         0  raw.o ABSOLUTE
    ..\lwip\src\core\stats.c                 0x00000000   Number         0  stats.o ABSOLUTE
    ..\lwip\src\core\sys.c                   0x00000000   Number         0  sys.o ABSOLUTE
    ..\lwip\src\core\tcp.c                   0x00000000   Number         0  tcp.o ABSOLUTE
    ..\lwip\src\core\tcp_in.c                0x00000000   Number         0  tcp_in.o ABSOLUTE
    ..\lwip\src\core\tcp_out.c               0x00000000   Number         0  tcp_out.o ABSOLUTE
    ..\lwip\src\core\timers.c                0x00000000   Number         0  timers.o ABSOLUTE
    ..\lwip\src\core\udp.c                   0x00000000   Number         0  udp.o ABSOLUTE
    ..\lwip\src\netif\etharp.c               0x00000000   Number         0  etharp.o ABSOLUTE
    ..\lwip\src\netif\ethernetif.c           0x00000000   Number         0  ethernetif.o ABSOLUTE
    ..\lwip\src\netif\slipif.c               0x00000000   Number         0  slipif.o ABSOLUTE
    application.c                            0x00000000   Number         0  application.o ABSOLUTE
    dc.s                                     0x00000000   Number         0  dc.o ABSOLUTE
    echo.c                                   0x00000000   Number         0  echo.o ABSOLUTE
    handlers.s                               0x00000000   Number         0  handlers.o ABSOLUTE
    init.s                                   0x00000000   Number         0  init.o ABSOLUTE
    lcd1602.c                                0x00000000   Number         0  lcd1602.o ABSOLUTE
    spi_bus.c                                0x00000000   Number         0  spi_bus.o ABSOLUTE
    startup.c                                0x00000000   Number         0  startup.o ABSOLUTE
    stm32f10x_it.c                           0x00000000   Number         0  stm32f10x_it.o ABSOLUTE
    tcpserver.c                              0x00000000   Number         0  tcpserver.o ABSOLUTE
    RESET                                    0x08000000   Section      304  startup_stm32f10x_hd.o(RESET)
    .ARM.Collect$$$$00000000                 0x08000130   Section        0  entry.o(.ARM.Collect$$$$00000000)
    .ARM.Collect$$$$00000001                 0x08000130   Section        4  entry2.o(.ARM.Collect$$$$00000001)
    .ARM.Collect$$$$00000004                 0x08000134   Section        4  entry5.o(.ARM.Collect$$$$00000004)
    .ARM.Collect$$$$00000007                 0x08000138   Section        8  entry7.o(.ARM.Collect$$$$00000007)
    .ARM.Collect$$$$00002712                 0x08000140   Section        4  entry2.o(.ARM.Collect$$$$00002712)
    __lit__00000000                          0x08000140   Data           4  entry2.o(.ARM.Collect$$$$00002712)
    .text                                    0x08000144   Section       36  startup_stm32f10x_hd.o(.text)
    .text                                    0x08000168   Section      240  context_rvds.o(.text)
    .text                                    0x08000258   Section        0  cpuport.o(.text)
    usage_fault_track                        0x080002a5   Thumb Code   126  cpuport.o(.text)
    bus_fault_track                          0x08000323   Thumb Code   132  cpuport.o(.text)
    mem_manage_fault_track                   0x080003a7   Thumb Code   116  cpuport.o(.text)
    hard_fault_track                         0x0800041b   Thumb Code    76  cpuport.o(.text)
    .text                                    0x0800084c   Section        0  stm32f10x_it.o(.text)
    .text                                    0x08000860   Section        0  startup.o(.text)
    .text                                    0x08000924   Section        0  application.o(.text)
    key_input_thread_entry                   0x08000925   Thumb Code   188  application.o(.text)
    led_thread_entry                         0x080009e1   Thumb Code    36  application.o(.text)
    lcd1602_thread_entry                     0x08000a05   Thumb Code   190  application.o(.text)
    SPI_DSP_thread_entry                     0x08000ac3   Thumb Code    30  application.o(.text)
    .text                                    0x08000d90   Section        0  tcpserver.o(.text)
    .text                                    0x08000f84   Section        0  misc.o(.text)
    .text                                    0x0800107c   Section        0  stm32f10x_exti.o(.text)
    .text                                    0x080011b8   Section        0  stm32f10x_gpio.o(.text)
    .text                                    0x08001510   Section        0  stm32f10x_rcc.o(.text)
    .text                                    0x080018b4   Section        0  stm32f10x_spi.o(.text)
    .text                                    0x08001bc4   Section        0  stm32f10x_usart.o(.text)
    .text                                    0x08001fd0   Section        0  system_stm32f10x.o(.text)
    SetSysClockTo72                          0x08001fd1   Thumb Code   192  system_stm32f10x.o(.text)
    SetSysClock                              0x08002091   Thumb Code     8  system_stm32f10x.o(.text)
    .text                                    0x08002198   Section        0  clock.o(.text)
    .text                                    0x080021fc   Section        0  device.o(.text)
    .text                                    0x08002610   Section        0  idle.o(.text)
    rt_thread_idle_entry                     0x080026c5   Thumb Code    20  idle.o(.text)
    rt_list_isempty                          0x080026fb   Thumb Code    16  idle.o(.text)
    .text                                    0x08002774   Section        0  ipc.o(.text)
    rt_list_insert_before                    0x08002775   Thumb Code    14  ipc.o(.text)
    rt_ipc_list_suspend                      0x08002783   Thumb Code   108  ipc.o(.text)
    rt_ipc_list_resume_all                   0x080027ef   Thumb Code    50  ipc.o(.text)
    rt_list_init                             0x0800411f   Thumb Code     6  ipc.o(.text)
    rt_list_isempty                          0x08004125   Thumb Code    16  ipc.o(.text)
    rt_ipc_object_init                       0x08004135   Thumb Code    16  ipc.o(.text)
    rt_ipc_list_resume                       0x08004145   Thumb Code    24  ipc.o(.text)
    .text                                    0x08004174   Section        0  irq.o(.text)
    .text                                    0x080041bc   Section        0  kservice.o(.text)
    print_number                             0x08004465   Thumb Code   352  kservice.o(.text)
    skip_atoi                                0x080045c5   Thumb Code    38  kservice.o(.text)
    .text                                    0x08004b4c   Section        0  mem.o(.text)
    plug_holes                               0x08004b59   Thumb Code   200  mem.o(.text)
    .text                                    0x080054c4   Section        0  object.o(.text)
    rt_list_insert_after                     0x080054c5   Thumb Code    14  object.o(.text)
    rt_list_remove                           0x080054d3   Thumb Code    18  object.o(.text)
    .text                                    0x080057f4   Section        0  scheduler.o(.text)
    _rt_scheduler_stack_check                0x080057fb   Thumb Code    94  scheduler.o(.text)
    rt_list_init                             0x08005a5b   Thumb Code     6  scheduler.o(.text)
    .text                                    0x08005b14   Section        0  thread.o(.text)
    rt_list_insert_after                     0x08005b15   Thumb Code    14  thread.o(.text)
    rt_list_remove                           0x08005b23   Thumb Code    18  thread.o(.text)
    rt_thread_exit                           0x08005b35   Thumb Code    76  thread.o(.text)
    _rt_thread_init                          0x08005bdb   Thumb Code   162  thread.o(.text)
    .text                                    0x0800619c   Section        0  timer.o(.text)
    rt_list_insert_after                     0x0800619d   Thumb Code    14  timer.o(.text)
    _rt_timer_init                           0x080061b1   Thumb Code    66  timer.o(.text)
    rt_timer_list_next_timeout               0x080061f3   Thumb Code    28  timer.o(.text)
    _rt_timer_remove                         0x0800620f   Thumb Code    46  timer.o(.text)
    rt_timer_count_height                    0x0800623d   Thumb Code    36  timer.o(.text)
    rt_list_init                             0x080066bd   Thumb Code     6  timer.o(.text)
    rt_list_isempty                          0x080066c3   Thumb Code    16  timer.o(.text)
    .text                                    0x080066d8   Section        0  board.o(.text)
    .text                                    0x0800676c   Section        0  led.o(.text)
    .text                                    0x08006a70   Section        0  usart.o(.text)
    stm32_configure                          0x08006a71   Thumb Code   162  usart.o(.text)
    stm32_control                            0x08006b13   Thumb Code   106  usart.o(.text)
    stm32_putc                               0x08006b7d   Thumb Code    56  usart.o(.text)
    stm32_getc                               0x08006bb5   Thumb Code    58  usart.o(.text)
    RCC_Configuration                        0x08006caf   Thumb Code    52  usart.o(.text)
    GPIO_Configuration                       0x08006ce3   Thumb Code   134  usart.o(.text)
    NVIC_Configuration                       0x08006d69   Thumb Code    34  usart.o(.text)
    .text                                    0x08006efc   Section        0  spi_core.o(.text)
    .text                                    0x0800766c   Section        0  spi_dev.o(.text)
    _spi_bus_device_init                     0x0800766d   Thumb Code    34  spi_dev.o(.text)
    _spi_bus_device_read                     0x0800768f   Thumb Code    88  spi_dev.o(.text)
    _spi_bus_device_write                    0x080076e7   Thumb Code    88  spi_dev.o(.text)
    _spi_bus_device_control                  0x0800773f   Thumb Code    56  spi_dev.o(.text)
    _spidev_device_init                      0x080077c1   Thumb Code    34  spi_dev.o(.text)
    _spidev_device_read                      0x080077e3   Thumb Code    88  spi_dev.o(.text)
    _spidev_device_write                     0x0800783b   Thumb Code    88  spi_dev.o(.text)
    _spidev_device_control                   0x08007893   Thumb Code    56  spi_dev.o(.text)
    .text                                    0x080079e0   Section        0  rt_stm32f10x_spi.o(.text)
    configure                                0x080079e1   Thumb Code   176  rt_stm32f10x_spi.o(.text)
    xfer                                     0x08007a91   Thumb Code   256  rt_stm32f10x_spi.o(.text)
    get_spi_BaudRatePrescaler                0x08007be7   Thumb Code   116  rt_stm32f10x_spi.o(.text)
    .text                                    0x08007c74   Section        0  enc28j60.o(.text)
    _delay_us                                0x08007c75   Thumb Code    20  enc28j60.o(.text)
    spi_read_op                              0x08007c89   Thumb Code    56  enc28j60.o(.text)
    spi_write_op                             0x08007cc1   Thumb Code    56  enc28j60.o(.text)
    enc28j60_set_bank                        0x08007cf9   Thumb Code    54  enc28j60.o(.text)
    spi_write                                0x08007d2f   Thumb Code    30  enc28j60.o(.text)
    enc28j60_clkout                          0x08007d4d   Thumb Code    20  enc28j60.o(.text)
    spi_read                                 0x08007d61   Thumb Code    26  enc28j60.o(.text)
    enc28j60_phy_read                        0x08007d7b   Thumb Code    88  enc28j60.o(.text)
    enc28j60_phy_write                       0x08007dd3   Thumb Code    62  enc28j60.o(.text)
    enc28j60_interrupt_disable               0x08007e11   Thumb Code    38  enc28j60.o(.text)
    enc28j60_interrupt_enable                0x08007e37   Thumb Code    28  enc28j60.o(.text)
    enc28j60_check_link_status               0x08007e53   Thumb Code    32  enc28j60.o(.text)
    _tx_chain_init                           0x08007e7d   Thumb Code    66  enc28j60.o(.text)
    enc28j60_init                            0x08007ebf   Thumb Code   468  enc28j60.o(.text)
    enc28j60_control                         0x08008093   Thumb Code    50  enc28j60.o(.text)
    enc28j60_open                            0x080080c5   Thumb Code     6  enc28j60.o(.text)
    enc28j60_close                           0x080080cb   Thumb Code     6  enc28j60.o(.text)
    enc28j60_read                            0x080080d1   Thumb Code    52  enc28j60.o(.text)
    enc28j60_write                           0x08008105   Thumb Code    26  enc28j60.o(.text)
    enc28j60_tx                              0x0800811f   Thumb Code   406  enc28j60.o(.text)
    enc28j60_rx                              0x080082b5   Thumb Code   862  enc28j60.o(.text)
    enc28j60                                 0x0800871b   Thumb Code   470  enc28j60.o(.text)
    .text                                    0x08008cb4   Section        0  lcd1602.o(.text)
    DelayMs                                  0x08008cb5   Thumb Code    28  lcd1602.o(.text)
    DelayUs                                  0x08008cd1   Thumb Code    24  lcd1602.o(.text)
    .text                                    0x0800920c   Section        0  spi_instruction.o(.text)
    spi_instruction_lock                     0x0800928b   Thumb Code    18  spi_instruction.o(.text)
    spi_instruction_unlock                   0x0800929d   Thumb Code    14  spi_instruction.o(.text)
    spi_instruction_read                     0x080092ab   Thumb Code    32  spi_instruction.o(.text)
    .text                                    0x08009328   Section        0  key_input.o(.text)
    .text                                    0x08009424   Section        0  iic_cs4385.o(.text)
    Delay_us                                 0x08009425   Thumb Code    24  iic_cs4385.o(.text)
    .text                                    0x080098c8   Section        0  components.o(.text)
    rti_start                                0x080098c9   Thumb Code     4  components.o(.text)
    rti_board_end                            0x080098cd   Thumb Code     4  components.o(.text)
    rti_end                                  0x080098d1   Thumb Code     4  components.o(.text)
    .text                                    0x08009908   Section        0  dataqueue.o(.text)
    rt_list_insert_before                    0x08009909   Thumb Code    14  dataqueue.o(.text)
    rt_list_init                             0x08009dab   Thumb Code     6  dataqueue.o(.text)
    rt_list_isempty                          0x08009db1   Thumb Code    16  dataqueue.o(.text)
    .text                                    0x08009dc0   Section        0  serial.o(.text)
    rt_serial_init                           0x08009dc1   Thumb Code   144  serial.o(.text)
    rt_serial_open                           0x08009e51   Thumb Code    78  serial.o(.text)
    rt_serial_close                          0x08009e9f   Thumb Code    76  serial.o(.text)
    rt_serial_read                           0x08009eeb   Thumb Code   190  serial.o(.text)
    rt_serial_write                          0x08009fa9   Thumb Code   340  serial.o(.text)
    rt_serial_control                        0x0800a0fd   Thumb Code   110  serial.o(.text)
    .text                                    0x0800a390   Section        0  cmd.o(.text)
    rt_list_len                              0x0800a391   Thumb Code    20  cmd.o(.text)
    _list_thread                             0x0800a3bb   Thumb Code   174  cmd.o(.text)
    show_wait_queue                          0x0800a473   Thumb Code    40  cmd.o(.text)
    _list_sem                                0x0800a49b   Thumb Code   108  cmd.o(.text)
    _list_event                              0x0800a513   Thumb Code    96  cmd.o(.text)
    _list_mutex                              0x0800a57f   Thumb Code    66  cmd.o(.text)
    _list_mailbox                            0x0800a5cd   Thumb Code   120  cmd.o(.text)
    _list_msgqueue                           0x0800a651   Thumb Code   108  cmd.o(.text)
    _list_mempool                            0x0800a6c9   Thumb Code    98  cmd.o(.text)
    _list_timer                              0x0800a737   Thumb Code  1074  cmd.o(.text)
    _list_device                             0x0800ab73   Thumb Code    82  cmd.o(.text)
    str_is_prefix                            0x0800ac4f   Thumb Code    34  cmd.o(.text)
    str_common                               0x0800ac71   Thumb Code    32  cmd.o(.text)
    rt_list_isempty                          0x0800ae43   Thumb Code    16  cmd.o(.text)
    .text                                    0x0800af4c   Section        0  finsh_compiler.o(.text)
    finsh_compile                            0x0800af4d   Thumb Code  5764  finsh_compiler.o(.text)
    finsh_type_check                         0x0800c5d1   Thumb Code   352  finsh_compiler.o(.text)
    .text                                    0x0800c79c   Section        0  finsh_error.o(.text)
    .text                                    0x0800c7c8   Section        0  finsh_heap.o(.text)
    finsh_block_insert                       0x0800c7ed   Thumb Code    62  finsh_heap.o(.text)
    finsh_block_remove                       0x0800c82b   Thumb Code    46  finsh_heap.o(.text)
    finsh_block_split                        0x0800c859   Thumb Code    24  finsh_heap.o(.text)
    finsh_block_merge                        0x0800c871   Thumb Code   124  finsh_heap.o(.text)
    finsh_heap_gc                            0x0800c90f   Thumb Code    78  finsh_heap.o(.text)
    .text                                    0x0800c9d8   Section        0  finsh_init.o(.text)
    .text                                    0x0800ca30   Section        0  finsh_node.o(.text)
    .text                                    0x0800cbb4   Section        0  finsh_ops.o(.text)
    .text                                    0x0800d60c   Section        0  finsh_parser.o(.text)
    make_sys_node                            0x0800d60d   Thumb Code    40  finsh_parser.o(.text)
    proc_param_list                          0x0800d635   Thumb Code    76  finsh_parser.o(.text)
    proc_expr                                0x0800d681   Thumb Code    12  finsh_parser.o(.text)
    proc_identifier                          0x0800d68d   Thumb Code    44  finsh_parser.o(.text)
    proc_primary_expr                        0x0800d6b9   Thumb Code   158  finsh_parser.o(.text)
    proc_postfix_expr                        0x0800d757   Thumb Code   162  finsh_parser.o(.text)
    proc_unary_expr                          0x0800d7f9   Thumb Code   190  finsh_parser.o(.text)
    proc_type                                0x0800d8b7   Thumb Code   250  finsh_parser.o(.text)
    proc_cast_expr                           0x0800d9b1   Thumb Code    78  finsh_parser.o(.text)
    proc_multiplicative_expr                 0x0800d9ff   Thumb Code   138  finsh_parser.o(.text)
    proc_additive_expr                       0x0800da89   Thumb Code   114  finsh_parser.o(.text)
    proc_shift_expr                          0x0800dafb   Thumb Code   116  finsh_parser.o(.text)
    proc_and_expr                            0x0800db6f   Thumb Code    76  finsh_parser.o(.text)
    proc_exclusive_or_expr                   0x0800dbbb   Thumb Code    76  finsh_parser.o(.text)
    proc_inclusive_or_expr                   0x0800dc07   Thumb Code    76  finsh_parser.o(.text)
    proc_assign_expr                         0x0800dc53   Thumb Code    56  finsh_parser.o(.text)
    proc_variable_decl                       0x0800dc8b   Thumb Code   474  finsh_parser.o(.text)
    proc_expr_statement                      0x0800de65   Thumb Code    56  finsh_parser.o(.text)
    .text                                    0x0800df88   Section        0  finsh_token.o(.text)
    token_prev_char                          0x0800df9d   Thumb Code    22  finsh_token.o(.text)
    token_next_char                          0x0800dfb3   Thumb Code    62  finsh_token.o(.text)
    token_spec_number                        0x0800dff1   Thumb Code   152  finsh_token.o(.text)
    token_proc_number                        0x0800e089   Thumb Code   288  finsh_token.o(.text)
    token_proc_escape                        0x0800e1a9   Thumb Code   174  finsh_token.o(.text)
    token_proc_string                        0x0800e257   Thumb Code    80  finsh_token.o(.text)
    token_proc_char                          0x0800e2a7   Thumb Code   162  finsh_token.o(.text)
    token_match_name                         0x0800e349   Thumb Code    48  finsh_token.o(.text)
    token_trim_space                         0x0800e3f1   Thumb Code    34  finsh_token.o(.text)
    token_run                                0x0800e413   Thumb Code   414  finsh_token.o(.text)
    .text                                    0x0800e5e0   Section        0  finsh_var.o(.text)
    .text                                    0x0800e778   Section        0  finsh_vm.o(.text)
    .text                                    0x0800e85c   Section        0  shell.o(.text)
    finsh_rx_ind                             0x0800e85d   Thumb Code    46  shell.o(.text)
    shell_auto_complete                      0x0800e98b   Thumb Code    28  shell.o(.text)
    shell_handle_history                     0x0800ea3d   Thumb Code    26  shell.o(.text)
    shell_push_history                       0x0800ea57   Thumb Code   160  shell.o(.text)
    .text                                    0x0800f1fc   Section        0  dfs.o(.text)
    .text                                    0x0800f5ec   Section        0  dfs_file.o(.text)
    copyfile                                 0x0800fb75   Thumb Code   178  dfs_file.o(.text)
    copydir                                  0x0800fc27   Thumb Code   250  dfs_file.o(.text)
    _get_path_lastname                       0x0800fd21   Thumb Code    26  dfs_file.o(.text)
    .text                                    0x0800ffb4   Section        0  dfs_fs.o(.text)
    .text                                    0x080105e8   Section        0  dfs_posix.o(.text)
    .text                                    0x08010b48   Section        0  def.o(.text)
    .text                                    0x08010b88   Section        0  dns.o(.text)
    dns_parse_name                           0x08010ba5   Thumb Code    42  dns.o(.text)
    dns_compare_name                         0x08010bcf   Thumb Code    60  dns.o(.text)
    dns_recv                                 0x08010c0b   Thumb Code   380  dns.o(.text)
    dns_send                                 0x08010ded   Thumb Code   322  dns.o(.text)
    dns_check_entry                          0x08010f2f   Thumb Code   482  dns.o(.text)
    dns_check_entries                        0x08011111   Thumb Code    22  dns.o(.text)
    dns_lookup                               0x08011139   Thumb Code    98  dns.o(.text)
    dns_enqueue                              0x0801119b   Thumb Code   226  dns.o(.text)
    .text                                    0x08011304   Section        0  init.o(.text)
    .text                                    0x08011328   Section        0  netif.o(.text)
    .text                                    0x08011668   Section        0  pbuf.o(.text)
    pbuf_free_ooseq                          0x08011669   Thumb Code    56  pbuf.o(.text)
    pbuf_free_ooseq_callback                 0x080116a1   Thumb Code    10  pbuf.o(.text)
    pbuf_pool_is_empty                       0x080116ab   Thumb Code    62  pbuf.o(.text)
    .text                                    0x08012658   Section        0  raw.o(.text)
    .text                                    0x0801286c   Section        0  tcp.o(.text)
    tcp_close_shutdown                       0x08012fa3   Thumb Code   450  tcp.o(.text)
    tcp_new_port                             0x080135f3   Thumb Code    96  tcp.o(.text)
    tcp_accept_null                          0x080136fb   Thumb Code     8  tcp.o(.text)
    tcp_kill_prio                            0x08013a97   Thumb Code    80  tcp.o(.text)
    tcp_kill_timewait                        0x08013ae7   Thumb Code    54  tcp.o(.text)
    .text                                    0x08013d80   Section        0  tcp_in.o(.text)
    tcp_oos_insert_segment                   0x08013d81   Thumb Code   138  tcp_in.o(.text)
    tcp_receive                              0x08013e0b   Thumb Code  3498  tcp_in.o(.text)
    tcp_parseopt                             0x08014bb5   Thumb Code   198  tcp_in.o(.text)
    tcp_process                              0x08014c7b   Thumb Code  1570  tcp_in.o(.text)
    tcp_listen_input                         0x0801529d   Thumb Code   278  tcp_in.o(.text)
    tcp_timewait_input                       0x080153b3   Thumb Code   190  tcp_in.o(.text)
    .text                                    0x08015afc   Section        0  tcp_out.o(.text)
    tcp_output_alloc_header                  0x08015afd   Thumb Code   148  tcp_out.o(.text)
    tcp_create_segment                       0x08015b91   Thumb Code   188  tcp_out.o(.text)
    tcp_pbuf_prealloc                        0x08015e45   Thumb Code   144  tcp_out.o(.text)
    tcp_write_checks                         0x08015ed5   Thumb Code   468  tcp_out.o(.text)
    tcp_output_segment                       0x080167e7   Thumb Code   230  tcp_out.o(.text)
    .text                                    0x08016e80   Section        0  timers.o(.text)
    tcpip_tcp_timer                          0x08016f31   Thumb Code    40  timers.o(.text)
    arp_timer                                0x08016f7f   Thumb Code    26  timers.o(.text)
    igmp_timer                               0x08016f99   Thumb Code    24  timers.o(.text)
    dns_timer                                0x08016fb1   Thumb Code    26  timers.o(.text)
    .text                                    0x0801714c   Section        0  udp.o(.text)
    udp_new_port                             0x0801714f   Thumb Code    80  udp.o(.text)
    .text                                    0x08017754   Section        0  api_lib.o(.text)
    netconn_recv_data                        0x08017d39   Thumb Code   368  api_lib.o(.text)
    netconn_close_shutdown                   0x0801826f   Thumb Code    94  api_lib.o(.text)
    .text                                    0x08018494   Section        0  api_msg.o(.text)
    recv_raw                                 0x08018495   Thumb Code   150  api_msg.o(.text)
    recv_udp                                 0x0801852b   Thumb Code   206  api_msg.o(.text)
    recv_tcp                                 0x080185f9   Thumb Code   208  api_msg.o(.text)
    err_tcp                                  0x080186c9   Thumb Code   262  api_msg.o(.text)
    do_writemore                             0x080187cf   Thumb Code   954  api_msg.o(.text)
    sent_tcp                                 0x08018b89   Thumb Code   128  api_msg.o(.text)
    do_close_internal                        0x08018c09   Thumb Code   436  api_msg.o(.text)
    poll_tcp                                 0x08018dbd   Thumb Code   130  api_msg.o(.text)
    setup_tcp                                0x08018e3f   Thumb Code    50  api_msg.o(.text)
    accept_function                          0x080190cf   Thumb Code   176  api_msg.o(.text)
    pcb_new                                  0x0801917f   Thumb Code   176  api_msg.o(.text)
    netconn_drain                            0x0801924f   Thumb Code   196  api_msg.o(.text)
    do_connected                             0x080195d5   Thumb Code   208  api_msg.o(.text)
    do_dns_found                             0x08019c89   Thumb Code    78  api_msg.o(.text)
    .text                                    0x08019d44   Section        0  netbuf.o(.text)
    .text                                    0x0801a0d0   Section        0  netifapi.o(.text)
    .text                                    0x0801a1c8   Section        0  sockets.o(.text)
    get_socket                               0x0801a1cb   Thumb Code    62  sockets.o(.text)
    tryget_socket                            0x0801a209   Thumb Code    42  sockets.o(.text)
    alloc_socket                             0x0801a233   Thumb Code   166  sockets.o(.text)
    free_socket                              0x0801a2d9   Thumb Code    56  sockets.o(.text)
    event_callback                           0x0801a311   Thumb Code   380  sockets.o(.text)
    lwip_selscan                             0x0801b095   Thumb Code   380  sockets.o(.text)
    lwip_getaddrname                         0x0801b689   Thumb Code   138  sockets.o(.text)
    lwip_getsockopt_internal                 0x0801b73f   Thumb Code   712  sockets.o(.text)
    lwip_setsockopt_internal                 0x0801bbbb   Thumb Code   616  sockets.o(.text)
    .text                                    0x0801c100   Section        0  tcpip.o(.text)
    tcpip_thread                             0x0801c101   Thumb Code   252  tcpip.o(.text)
    pbuf_free_int                            0x0801c435   Thumb Code    14  tcpip.o(.text)
    .text                                    0x0801c500   Section        0  icmp.o(.text)
    icmp_send_response                       0x0801c713   Thumb Code   164  icmp.o(.text)
    .text                                    0x0801c908   Section        0  igmp.o(.text)
    igmp_lookup_group                        0x0801c961   Thumb Code    86  igmp.o(.text)
    igmp_start_timer                         0x0801ca51   Thumb Code    30  igmp.o(.text)
    igmp_delaying_member                     0x0801ca6f   Thumb Code    42  igmp.o(.text)
    igmp_remove_group                        0x0801cabd   Thumb Code    66  igmp.o(.text)
    igmp_ip_output_if                        0x0801cc37   Thumb Code    60  igmp.o(.text)
    igmp_send                                0x0801cc73   Thumb Code   278  igmp.o(.text)
    igmp_timeout                             0x0801cf6d   Thumb Code    32  igmp.o(.text)
    .text                                    0x0801d09c   Section        0  inet_chksum.o(.text)
    lwip_standard_chksum                     0x0801d09d   Thumb Code    94  inet_chksum.o(.text)
    .text                                    0x0801d31c   Section        0  ip.o(.text)
    .text                                    0x0801d800   Section        0  ip_addr.o(.text)
    .text                                    0x0801daf0   Section        0  sys_arch.o(.text)
    netif_device_init                        0x0801daf1   Thumb Code    42  sys_arch.o(.text)
    tcpip_init_done_callback                 0x0801db4b   Thumb Code   148  sys_arch.o(.text)
    .text                                    0x0801e32c   Section        0  etharp.o(.text)
    free_etharp_q                            0x0801e32d   Thumb Code   104  etharp.o(.text)
    etharp_free_entry                        0x0801e395   Thumb Code   112  etharp.o(.text)
    etharp_find_entry                        0x0801e497   Thumb Code   518  etharp.o(.text)
    etharp_send_ip                           0x0801e69d   Thumb Code    88  etharp.o(.text)
    etharp_update_arp_entry                  0x0801e6f5   Thumb Code   518  etharp.o(.text)
    etharp_arp_input                         0x0801e99b   Thumb Code   352  etharp.o(.text)
    etharp_raw                               0x0801eafb   Thumb Code   272  etharp.o(.text)
    etharp_output_to_arp_index               0x0801ec33   Thumb Code   314  etharp.o(.text)
    .text                                    0x0801f26c   Section        0  ethernetif.o(.text)
    ethernetif_linkoutput                    0x0801f26d   Thumb Code    66  ethernetif.o(.text)
    eth_netif_device_init                    0x0801f2af   Thumb Code    66  ethernetif.o(.text)
    eth_tx_thread_entry                      0x0801f421   Thumb Code   116  ethernetif.o(.text)
    eth_rx_thread_entry                      0x0801f495   Thumb Code   156  ethernetif.o(.text)
    .text                                    0x0801fc4c   Section        0  rand.o(.text)
    .text                                    0x0801fc70   Section        0  memcpya.o(.text)
    .text                                    0x0801fc94   Section        0  memseta.o(.text)
    .text                                    0x0801fcba   Section        0  strncpy.o(.text)
    .text                                    0x0801fcd2   Section        0  strlen.o(.text)
    .text                                    0x0801fce2   Section        0  strcmp.o(.text)
    .text                                    0x0801fcfe   Section        0  memcmp.o(.text)
    .text                                    0x0801fd18   Section        0  strcpy.o(.text)
    .text                                    0x0801fd2a   Section        0  strncmp.o(.text)
    .text                                    0x0801fd48   Section        0  strrchr.o(.text)
    .text                                    0x0801fd68   Section        0  atoi.o(.text)
    .text                                    0x0801fd82   Section        0  strtol.o(.text)
    .text                                    0x0801fdf4   Section       36  init.o(.text)
    .text                                    0x0801fe18   Section        0  ctype_o.o(.text)
    .text                                    0x0801fe20   Section        0  _strtoul.o(.text)
    .text                                    0x0801febc   Section        0  _chval.o(.text)
    .text                                    0x0801fedc   Section        0  __dczerorl2.o(.text)
    i.__aeabi_errno_addr                     0x0801ff38   Section        0  errno.o(i.__aeabi_errno_addr)
    i.__scatterload_copy                     0x0801ff40   Section       14  handlers.o(i.__scatterload_copy)
    i.__scatterload_null                     0x0801ff4e   Section        2  handlers.o(i.__scatterload_null)
    i.__scatterload_zeroinit                 0x0801ff50   Section       14  handlers.o(i.__scatterload_zeroinit)
    .constdata                               0x0801ff5e   Section       19  cpuport.o(.constdata)
    __FUNCTION__                             0x0801ff5e   Data          19  cpuport.o(.constdata)
    .constdata                               0x0801ff71   Section       62  tcpserver.o(.constdata)
    send_data                                0x0801ff71   Data          35  tcpserver.o(.constdata)
    .constdata                               0x0801ffaf   Section      168  device.o(.constdata)
    __FUNCTION__                             0x0801ffaf   Data          21  device.o(.constdata)
    __FUNCTION__                             0x0801ffc4   Data          15  device.o(.constdata)
    __FUNCTION__                             0x0801ffd3   Data          15  device.o(.constdata)
    __FUNCTION__                             0x0801ffe2   Data          16  device.o(.constdata)
    __FUNCTION__                             0x0801fff2   Data          15  device.o(.constdata)
    __FUNCTION__                             0x08020001   Data          16  device.o(.constdata)
    __FUNCTION__                             0x08020011   Data          18  device.o(.constdata)
    __FUNCTION__                             0x08020023   Data          26  device.o(.constdata)
    __FUNCTION__                             0x0802003d   Data          26  device.o(.constdata)
    .constdata                               0x08020057   Section       22  idle.o(.constdata)
    __FUNCTION__                             0x08020057   Data          22  idle.o(.constdata)
    .constdata                               0x0802006d   Section      471  ipc.o(.constdata)
    __FUNCTION__                             0x0802006d   Data          12  ipc.o(.constdata)
    __FUNCTION__                             0x08020079   Data          14  ipc.o(.constdata)
    __FUNCTION__                             0x08020087   Data          14  ipc.o(.constdata)
    __FUNCTION__                             0x08020095   Data          14  ipc.o(.constdata)
    __FUNCTION__                             0x080200a3   Data          12  ipc.o(.constdata)
    __FUNCTION__                             0x080200af   Data          15  ipc.o(.constdata)
    __FUNCTION__                             0x080200be   Data          14  ipc.o(.constdata)
    __FUNCTION__                             0x080200cc   Data          16  ipc.o(.constdata)
    __FUNCTION__                             0x080200dc   Data          16  ipc.o(.constdata)
    __FUNCTION__                             0x080200ec   Data          16  ipc.o(.constdata)
    __FUNCTION__                             0x080200fc   Data          14  ipc.o(.constdata)
    __FUNCTION__                             0x0802010a   Data          17  ipc.o(.constdata)
    __FUNCTION__                             0x0802011b   Data          14  ipc.o(.constdata)
    __FUNCTION__                             0x08020129   Data          16  ipc.o(.constdata)
    __FUNCTION__                             0x08020139   Data          16  ipc.o(.constdata)
    __FUNCTION__                             0x08020149   Data          16  ipc.o(.constdata)
    __FUNCTION__                             0x08020159   Data          14  ipc.o(.constdata)
    __FUNCTION__                             0x08020167   Data          14  ipc.o(.constdata)
    __FUNCTION__                             0x08020175   Data          17  ipc.o(.constdata)
    __FUNCTION__                             0x08020186   Data          11  ipc.o(.constdata)
    __FUNCTION__                             0x08020191   Data          13  ipc.o(.constdata)
    __FUNCTION__                             0x0802019e   Data          13  ipc.o(.constdata)
    __FUNCTION__                             0x080201ab   Data          13  ipc.o(.constdata)
    __FUNCTION__                             0x080201b8   Data          16  ipc.o(.constdata)
    __FUNCTION__                             0x080201c8   Data          11  ipc.o(.constdata)
    __FUNCTION__                             0x080201d3   Data          14  ipc.o(.constdata)
    __FUNCTION__                             0x080201e1   Data          11  ipc.o(.constdata)
    __FUNCTION__                             0x080201ec   Data          13  ipc.o(.constdata)
    __FUNCTION__                             0x080201f9   Data          13  ipc.o(.constdata)
    __FUNCTION__                             0x08020206   Data          13  ipc.o(.constdata)
    __FUNCTION__                             0x08020213   Data          11  ipc.o(.constdata)
    __FUNCTION__                             0x0802021e   Data          13  ipc.o(.constdata)
    __FUNCTION__                             0x0802022b   Data          11  ipc.o(.constdata)
    __FUNCTION__                             0x08020236   Data          14  ipc.o(.constdata)
    .constdata                               0x08020244   Section      290  kservice.o(.constdata)
    small_digits                             0x08020344   Data          17  kservice.o(.constdata)
    large_digits                             0x08020355   Data          17  kservice.o(.constdata)
    .constdata                               0x08020368   Section      352  mem.o(.constdata)
    __FUNCTION__                             0x0802038f   Data          11  mem.o(.constdata)
    __FUNCTION__                             0x0802039a   Data          20  mem.o(.constdata)
    __FUNCTION__                             0x080203ae   Data          10  mem.o(.constdata)
    __FUNCTION__                             0x080203b8   Data          11  mem.o(.constdata)
    __FUNCTION__                             0x080203c3   Data          10  mem.o(.constdata)
    __FUNCTION__                             0x080203cd   Data           8  mem.o(.constdata)
    .constdata                               0x080204c8   Section       94  object.o(.constdata)
    __FUNCTION__                             0x080204c8   Data          17  object.o(.constdata)
    __FUNCTION__                             0x080204d9   Data          19  object.o(.constdata)
    __FUNCTION__                             0x080204ec   Data          17  object.o(.constdata)
    __FUNCTION__                             0x080204fd   Data          26  object.o(.constdata)
    __FUNCTION__                             0x08020517   Data          15  object.o(.constdata)
    .constdata                               0x08020526   Section       78  scheduler.o(.constdata)
    __FUNCTION__                             0x08020526   Data          26  scheduler.o(.constdata)
    __FUNCTION__                             0x08020540   Data          26  scheduler.o(.constdata)
    __FUNCTION__                             0x0802055a   Data          26  scheduler.o(.constdata)
    .constdata                               0x08020574   Section      170  thread.o(.constdata)
    __FUNCTION__                             0x08020574   Data          16  thread.o(.constdata)
    __FUNCTION__                             0x08020584   Data          15  thread.o(.constdata)
    __FUNCTION__                             0x08020593   Data          18  thread.o(.constdata)
    __FUNCTION__                             0x080205a5   Data          17  thread.o(.constdata)
    __FUNCTION__                             0x080205b6   Data          17  thread.o(.constdata)
    __FUNCTION__                             0x080205c7   Data          16  thread.o(.constdata)
    __FUNCTION__                             0x080205d7   Data          18  thread.o(.constdata)
    __FUNCTION__                             0x080205e9   Data          18  thread.o(.constdata)
    __FUNCTION__                             0x080205fb   Data          17  thread.o(.constdata)
    __FUNCTION__                             0x0802060c   Data          18  thread.o(.constdata)
    .constdata                               0x0802061e   Section       92  timer.o(.constdata)
    __FUNCTION__                             0x0802061e   Data          14  timer.o(.constdata)
    __FUNCTION__                             0x0802062c   Data          16  timer.o(.constdata)
    __FUNCTION__                             0x0802063c   Data          16  timer.o(.constdata)
    __FUNCTION__                             0x0802064c   Data          15  timer.o(.constdata)
    __FUNCTION__                             0x0802065b   Data          14  timer.o(.constdata)
    __FUNCTION__                             0x08020669   Data          17  timer.o(.constdata)
    .constdata                               0x0802067a   Section       36  led.o(.constdata)
    .constdata                               0x080206a0   Section       80  usart.o(.constdata)
    stm32_uart_ops                           0x080206a0   Data          20  usart.o(.constdata)
    __FUNCTION__                             0x080206b4   Data          16  usart.o(.constdata)
    __FUNCTION__                             0x080206c4   Data          14  usart.o(.constdata)
    __FUNCTION__                             0x080206d2   Data          11  usart.o(.constdata)
    __FUNCTION__                             0x080206dd   Data          11  usart.o(.constdata)
    .constdata                               0x080206f0   Section      163  spi_core.o(.constdata)
    __FUNCTION__                             0x080206f0   Data          17  spi_core.o(.constdata)
    __FUNCTION__                             0x08020701   Data          22  spi_core.o(.constdata)
    __FUNCTION__                             0x08020717   Data          22  spi_core.o(.constdata)
    __FUNCTION__                             0x0802072d   Data          16  spi_core.o(.constdata)
    __FUNCTION__                             0x0802073d   Data          24  spi_core.o(.constdata)
    __FUNCTION__                             0x08020755   Data          16  spi_core.o(.constdata)
    __FUNCTION__                             0x08020765   Data          19  spi_core.o(.constdata)
    __FUNCTION__                             0x08020778   Data          12  spi_core.o(.constdata)
    __FUNCTION__                             0x08020784   Data          15  spi_core.o(.constdata)
    .constdata                               0x08020793   Section      217  spi_dev.o(.constdata)
    __FUNCTION__                             0x08020793   Data          21  spi_dev.o(.constdata)
    __FUNCTION__                             0x080207a8   Data          21  spi_dev.o(.constdata)
    __FUNCTION__                             0x080207bd   Data          22  spi_dev.o(.constdata)
    __FUNCTION__                             0x080207d3   Data          24  spi_dev.o(.constdata)
    __FUNCTION__                             0x080207eb   Data          23  spi_dev.o(.constdata)
    __FUNCTION__                             0x08020802   Data          20  spi_dev.o(.constdata)
    __FUNCTION__                             0x08020816   Data          20  spi_dev.o(.constdata)
    __FUNCTION__                             0x0802082a   Data          21  spi_dev.o(.constdata)
    __FUNCTION__                             0x0802083f   Data          23  spi_dev.o(.constdata)
    __FUNCTION__                             0x08020856   Data          22  spi_dev.o(.constdata)
    .constdata                               0x0802086c   Section       45  enc28j60.o(.constdata)
    __FUNCTION__                             0x0802088d   Data          12  enc28j60.o(.constdata)
    .constdata                               0x08020899   Section       75  dataqueue.o(.constdata)
    __FUNCTION__                             0x08020899   Data          19  dataqueue.o(.constdata)
    __FUNCTION__                             0x080208ac   Data          19  dataqueue.o(.constdata)
    __FUNCTION__                             0x080208bf   Data          18  dataqueue.o(.constdata)
    __FUNCTION__                             0x080208d1   Data          19  dataqueue.o(.constdata)
    .constdata                               0x080208e4   Section      134  serial.o(.constdata)
    __FUNCTION__                             0x080208e4   Data          15  serial.o(.constdata)
    __FUNCTION__                             0x080208f3   Data          15  serial.o(.constdata)
    __FUNCTION__                             0x08020902   Data          16  serial.o(.constdata)
    __FUNCTION__                             0x08020912   Data          15  serial.o(.constdata)
    __FUNCTION__                             0x08020921   Data          16  serial.o(.constdata)
    __FUNCTION__                             0x08020931   Data          18  serial.o(.constdata)
    __FUNCTION__                             0x08020943   Data          22  serial.o(.constdata)
    __FUNCTION__                             0x08020959   Data          17  serial.o(.constdata)
    .constdata                               0x0802096c   Section      659  cmd.o(.constdata)
    .constdata                               0x08020c00   Section      196  finsh_ops.o(.constdata)
    .constdata                               0x08020cc4   Section       64  finsh_token.o(.constdata)
    finsh_name_table                         0x08020cc4   Data          64  finsh_token.o(.constdata)
    .constdata                               0x08020d04   Section       77  shell.o(.constdata)
    __FUNCTION__                             0x08020d04   Data          13  shell.o(.constdata)
    __FUNCTION__                             0x08020d11   Data          17  shell.o(.constdata)
    __FUNCTION__                             0x08020d22   Data          17  shell.o(.constdata)
    __FUNCTION__                             0x08020d33   Data          15  shell.o(.constdata)
    __FUNCTION__                             0x08020d42   Data          15  shell.o(.constdata)
    .constdata                               0x08020d51   Section       35  dfs.o(.constdata)
    __FUNCTION__                             0x08020d51   Data           9  dfs.o(.constdata)
    __FUNCTION__                             0x08020d5a   Data           7  dfs.o(.constdata)
    __FUNCTION__                             0x08020d61   Data          19  dfs.o(.constdata)
    .constdata                               0x08020d74   Section       95  dfs_file.o(.constdata)
    .constdata                               0x08020dd3   Section       92  dfs_fs.o(.constdata)
    __FUNCTION__                             0x08020dfc   Data          22  dfs_fs.o(.constdata)
    __FUNCTION__                             0x08020e12   Data          29  dfs_fs.o(.constdata)
    .constdata                               0x08020e2f   Section       25  dfs_posix.o(.constdata)
    .constdata                               0x08020e48   Section       30  memp.o(.constdata)
    .constdata                               0x08020e68   Section       80  tcp.o(.constdata)
    .constdata                               0x08020eb8   Section       85  tcp_out.o(.constdata)
    .constdata                               0x08020f10   Section       64  sockets.o(.constdata)
    err_to_errno_table                       0x08020f10   Data          64  sockets.o(.constdata)
    .constdata                               0x08020f50   Section        8  ip_addr.o(.constdata)
    .constdata                               0x08020f58   Section      179  sys_arch.o(.constdata)
    __FUNCTION__                             0x08020f58   Data          12  sys_arch.o(.constdata)
    __FUNCTION__                             0x08020f64   Data          13  sys_arch.o(.constdata)
    __FUNCTION__                             0x08020f71   Data          18  sys_arch.o(.constdata)
    __FUNCTION__                             0x08020f83   Data          14  sys_arch.o(.constdata)
    __FUNCTION__                             0x08020f91   Data          15  sys_arch.o(.constdata)
    __FUNCTION__                             0x08020fa0   Data          15  sys_arch.o(.constdata)
    __FUNCTION__                             0x08020faf   Data          13  sys_arch.o(.constdata)
    __FUNCTION__                             0x08020fbc   Data          14  sys_arch.o(.constdata)
    __FUNCTION__                             0x08020fca   Data          14  sys_arch.o(.constdata)
    __FUNCTION__                             0x08020fd8   Data          20  sys_arch.o(.constdata)
    __FUNCTION__                             0x08020fec   Data          15  sys_arch.o(.constdata)
    __FUNCTION__                             0x08020ffb   Data          16  sys_arch.o(.constdata)
    .constdata                               0x0802100c   Section       80  etharp.o(.constdata)
    .constdata                               0x0802105c   Section      236  ethernetif.o(.constdata)
    __FUNCTION__                             0x080210f1   Data          22  ethernetif.o(.constdata)
    __FUNCTION__                             0x08021107   Data          22  ethernetif.o(.constdata)
    __FUNCTION__                             0x0802111d   Data          20  ethernetif.o(.constdata)
    __FUNCTION__                             0x08021131   Data          23  ethernetif.o(.constdata)
    .constdata                               0x08021148   Section      129  ctype_o.o(.constdata)
    .constdata                               0x080211cc   Section        4  ctype_o.o(.constdata)
    table                                    0x080211cc   Data           4  ctype_o.o(.constdata)
    .conststring                             0x080211d0   Section      233  cmd.o(.conststring)
    .conststring                             0x080212b9   Section      216  finsh_error.o(.conststring)
    .conststring                             0x08021391   Section       44  finsh_token.o(.conststring)
    .conststring                             0x080213bd   Section      104  tcp.o(.conststring)
    .rti_fn.0                                0x08021428   Section        4  components.o(.rti_fn.0)
    .rti_fn.1.post                           0x0802142c   Section        4  components.o(.rti_fn.1.post)
    .rti_fn.7                                0x08021430   Section        4  components.o(.rti_fn.7)
    FSymTab                                  0x08021434   Section       12  tcpserver.o(FSymTab)
    FSymTab                                  0x08021440   Section       12  mem.o(FSymTab)
    FSymTab                                  0x0802144c   Section       12  led.o(FSymTab)
    FSymTab                                  0x08021458   Section       12  enc28j60.o(FSymTab)
    FSymTab                                  0x08021464   Section      144  cmd.o(FSymTab)
    FSymTab                                  0x080214f4   Section       48  dfs_file.o(FSymTab)
    FSymTab                                  0x08021524   Section       24  dfs_fs.o(FSymTab)
    FSymTab                                  0x0802153c   Section       12  dfs_posix.o(FSymTab)
    FSymTab                                  0x08021548   Section       48  ethernetif.o(FSymTab)
    VSymTab                                  0x08021598   Section       16  cmd.o(VSymTab)
    .data                                    0x20000000   Section       16  cpuport.o(.data)
    rt_exception_hook                        0x20000000   Data           4  cpuport.o(.data)
    .data                                    0x20000010   Section       24  application.o(.data)
    g_i_key1_press_ok                        0x20000010   Data           4  application.o(.data)
    g_i_key2_press_ok                        0x20000014   Data           4  application.o(.data)
    g_i_have_key_pressed                     0x20000018   Data           4  application.o(.data)
    g_i_key_led_handle_count                 0x2000001c   Data           4  application.o(.data)
    g_i_lcd_show_value                       0x20000020   Data           4  application.o(.data)
    i_show_flag                              0x20000024   Data           4  application.o(.data)
    .data                                    0x20000028   Section       20  stm32f10x_rcc.o(.data)
    APBAHBPrescTable                         0x20000028   Data          16  stm32f10x_rcc.o(.data)
    ADCPrescTable                            0x20000038   Data           4  stm32f10x_rcc.o(.data)
    .data                                    0x2000003c   Section       20  system_stm32f10x.o(.data)
    .data                                    0x20000050   Section        4  clock.o(.data)
    rt_tick                                  0x20000050   Data           4  clock.o(.data)
    .data                                    0x20000054   Section        4  idle.o(.data)
    rt_thread_idle_hook                      0x20000054   Data           4  idle.o(.data)
    .data                                    0x20000058   Section        1  irq.o(.data)
    .data                                    0x2000005c   Section        8  kservice.o(.data)
    _console_device                          0x2000005c   Data           4  kservice.o(.data)
    _errno                                   0x20000060   Data           4  kservice.o(.data)
    .data                                    0x20000064   Section       32  mem.o(.data)
    rt_malloc_hook                           0x20000064   Data           4  mem.o(.data)
    rt_free_hook                             0x20000068   Data           4  mem.o(.data)
    heap_ptr                                 0x2000006c   Data           4  mem.o(.data)
    heap_end                                 0x20000070   Data           4  mem.o(.data)
    lfree                                    0x20000074   Data           4  mem.o(.data)
    mem_size_aligned                         0x20000078   Data           4  mem.o(.data)
    used_mem                                 0x2000007c   Data           4  mem.o(.data)
    max_mem                                  0x20000080   Data           4  mem.o(.data)
    .data                                    0x20000084   Section      164  object.o(.data)
    rt_object_attach_hook                    0x20000114   Data           4  object.o(.data)
    rt_object_detach_hook                    0x20000118   Data           4  object.o(.data)
    .data                                    0x20000128   Section       28  scheduler.o(.data)
    rt_scheduler_lock_nest                   0x20000128   Data           2  scheduler.o(.data)
    rt_scheduler_hook                        0x20000140   Data           4  scheduler.o(.data)
    .data                                    0x20000144   Section       16  timer.o(.data)
    random_nr                                0x20000144   Data           4  timer.o(.data)
    rt_timer_list                            0x20000148   Data           8  timer.o(.data)
    rt_timer_timeout_hook                    0x20000150   Data           4  timer.o(.data)
    .data                                    0x20000154   Section        5  led.o(.data)
    g_led_init                               0x20000154   Data           4  led.o(.data)
    led_inited                               0x20000158   Data           1  led.o(.data)
    .data                                    0x2000015c   Section       24  usart.o(.data)
    .data                                    0x20000174   Section        8  rt_stm32f10x_spi.o(.data)
    stm32_spi_ops                            0x20000174   Data           8  rt_stm32f10x_spi.o(.data)
    .data                                    0x2000017c   Section       20  enc28j60.o(.data)
    spi_cs                                   0x2000017c   Data           8  enc28j60.o(.data)
    tx_current                               0x20000184   Data           4  enc28j60.o(.data)
    tx_ack                                   0x20000188   Data           4  enc28j60.o(.data)
    Enc28j60Bank                             0x2000018c   Data           1  enc28j60.o(.data)
    NextPacketPtr                            0x2000018e   Data           2  enc28j60.o(.data)
    .data                                    0x20000190   Section        8  spi_instruction.o(.data)
    spi_cs                                   0x20000190   Data           8  spi_instruction.o(.data)
    .data                                    0x20000198   Section       24  key_input.o(.data)
    g_i_key_press_time                       0x20000198   Data           8  key_input.o(.data)
    g_i_key_press_flag                       0x200001a0   Data           8  key_input.o(.data)
    g_i_key_pressed                          0x200001a8   Data           8  key_input.o(.data)
    .data                                    0x200001b0   Section        4  cmd.o(.data)
    dummy                                    0x200001b0   Data           4  cmd.o(.data)
    .data                                    0x200001b4   Section        8  finsh_compiler.o(.data)
    .data                                    0x200001bc   Section       61  finsh_error.o(.data)
    finsh_error_string_table                 0x200001bc   Data          60  finsh_error.o(.data)
    .data                                    0x200001fc   Section        8  finsh_heap.o(.data)
    free_list                                0x200001fc   Data           4  finsh_heap.o(.data)
    allocate_list                            0x20000200   Data           4  finsh_heap.o(.data)
    .data                                    0x20000204   Section        4  finsh_var.o(.data)
    .data                                    0x20000208   Section       12  finsh_vm.o(.data)
    .data                                    0x20000214   Section        4  shell.o(.data)
    .data                                    0x20000218   Section       16  symbol.o(.data)
    .data                                    0x20000228   Section       20  dns.o(.data)
    dns_pcb                                  0x20000228   Data           4  dns.o(.data)
    dns_seqno                                0x2000022c   Data           1  dns.o(.data)
    dns_servers                              0x20000230   Data           8  dns.o(.data)
    dns_payload                              0x20000238   Data           4  dns.o(.data)
    .data                                    0x2000023c   Section        9  netif.o(.data)
    netif_num                                0x20000244   Data           1  netif.o(.data)
    .data                                    0x20000245   Section        1  pbuf.o(.data)
    .data                                    0x20000248   Section        4  raw.o(.data)
    raw_pcbs                                 0x20000248   Data           4  raw.o(.data)
    .data                                    0x2000024c   Section       35  tcp.o(.data)
    tcp_port                                 0x2000024c   Data           2  tcp.o(.data)
    iss                                      0x20000250   Data           4  tcp.o(.data)
    tcp_timer                                0x2000026d   Data           1  tcp.o(.data)
    tcp_timer_ctr                            0x2000026e   Data           1  tcp.o(.data)
    .data                                    0x20000270   Section       32  tcp_in.o(.data)
    tcphdr                                   0x20000270   Data           4  tcp_in.o(.data)
    iphdr                                    0x20000274   Data           4  tcp_in.o(.data)
    seqno                                    0x20000278   Data           4  tcp_in.o(.data)
    ackno                                    0x2000027c   Data           4  tcp_in.o(.data)
    flags                                    0x20000280   Data           1  tcp_in.o(.data)
    tcplen                                   0x20000282   Data           2  tcp_in.o(.data)
    recv_flags                               0x20000284   Data           1  tcp_in.o(.data)
    recv_data                                0x20000288   Data           4  tcp_in.o(.data)
    .data                                    0x20000290   Section        8  timers.o(.data)
    next_timeout                             0x20000290   Data           4  timers.o(.data)
    tcpip_tcp_timer_active                   0x20000294   Data           4  timers.o(.data)
    .data                                    0x20000298   Section        8  udp.o(.data)
    udp_port                                 0x20000298   Data           2  udp.o(.data)
    .data                                    0x200002a0   Section        8  sockets.o(.data)
    select_cb_list                           0x200002a0   Data           4  sockets.o(.data)
    select_cb_ctr                            0x200002a4   Data           4  sockets.o(.data)
    .data                                    0x200002a8   Section       12  tcpip.o(.data)
    tcpip_init_done                          0x200002a8   Data           4  tcpip.o(.data)
    tcpip_init_done_arg                      0x200002ac   Data           4  tcpip.o(.data)
    mbox                                     0x200002b0   Data           4  tcpip.o(.data)
    .data                                    0x200002b4   Section       12  igmp.o(.data)
    igmp_group_list                          0x200002b4   Data           4  igmp.o(.data)
    allsystems                               0x200002b8   Data           4  igmp.o(.data)
    allrouters                               0x200002bc   Data           4  igmp.o(.data)
    .data                                    0x200002c0   Section       18  ip.o(.data)
    ip_id                                    0x200002d0   Data           2  ip.o(.data)
    .data                                    0x200002d2   Section        6  sys_arch.o(.data)
    counter                                  0x200002d2   Data           2  sys_arch.o(.data)
    counter                                  0x200002d4   Data           2  sys_arch.o(.data)
    counter                                  0x200002d6   Data           2  sys_arch.o(.data)
    .data                                    0x200002d8   Section        1  etharp.o(.data)
    etharp_cached_entry                      0x200002d8   Data           1  etharp.o(.data)
    .data                                    0x200002dc   Section        4  rand.o(.data)
    _rand_state                              0x200002dc   Data           4  rand.o(.data)
    .data                                    0x200002e0   Section        4  errno.o(.data)
    _errno                                   0x200002e0   Data           4  errno.o(.data)
    .bss                                     0x200002e4   Section     1792  application.o(.bss)
    key_input_stack                          0x200002e4   Data         256  application.o(.bss)
    key_input_thread                         0x200003e4   Data         128  application.o(.bss)
    led_stack                                0x20000464   Data         512  application.o(.bss)
    led_thread                               0x20000664   Data         128  application.o(.bss)
    lcd1602_stack                            0x200006e4   Data         256  application.o(.bss)
    lcd1602_thread                           0x200007e4   Data         128  application.o(.bss)
    SPI_DSP_stack                            0x20000864   Data         256  application.o(.bss)
    SPI_DSP_thread                           0x20000964   Data         128  application.o(.bss)
    .bss                                     0x200009e4   Section      384  idle.o(.bss)
    idle                                     0x200009e4   Data         128  idle.o(.bss)
    rt_thread_stack                          0x20000a64   Data         256  idle.o(.bss)
    .bss                                     0x20000b64   Section      128  kservice.o(.bss)
    rt_log_buf                               0x20000b64   Data         128  kservice.o(.bss)
    .bss                                     0x20000be4   Section       32  mem.o(.bss)
    heap_sem                                 0x20000be4   Data          32  mem.o(.bss)
    .bss                                     0x20000c04   Section      256  scheduler.o(.bss)
    .bss                                     0x20000d04   Section      576  usart.o(.bss)
    .bss                                     0x20000f44   Section      580  enc28j60.o(.bss)
    stm32_spi                                0x20000f44   Data         112  enc28j60.o(.bss)
    spi_device                               0x20000fb4   Data          76  enc28j60.o(.bss)
    enc28j60_tx_list                         0x20001000   Data          40  enc28j60.o(.bss)
    tx_event                                 0x20001028   Data          32  enc28j60.o(.bss)
    enc28j60_dev                             0x20001048   Data         168  enc28j60.o(.bss)
    stm32_eth_device                         0x200010f0   Data         120  enc28j60.o(.bss)
    tx_wait                                  0x20001168   Data          32  enc28j60.o(.bss)
    .bss                                     0x20001188   Section      304  spi_instruction.o(.bss)
    stm32_spi                                0x20001188   Data         112  spi_instruction.o(.bss)
    spi_device                               0x200011f8   Data          76  spi_instruction.o(.bss)
    spi_dsp_instruction                      0x20001244   Data         116  spi_instruction.o(.bss)
    .bss                                     0x200012b8   Section      128  finsh_heap.o(.bss)
    .bss                                     0x20001338   Section      320  finsh_node.o(.bss)
    .bss                                     0x20001478   Section      192  finsh_var.o(.bss)
    .bss                                     0x20001538   Section      384  finsh_vm.o(.bss)
    .bss                                     0x200016b8   Section     2176  shell.o(.bss)
    finsh_thread                             0x200016b8   Data         128  shell.o(.bss)
    finsh_thread_stack                       0x20001738   Data        2048  shell.o(.bss)
    .bss                                     0x20001f38   Section      212  dfs.o(.bss)
    fslock                                   0x20001f68   Data          36  dfs.o(.bss)
    .bss                                     0x2000200c   Section      292  dfs_file.o(.bss)
    fd                                       0x2000200c   Data          32  dfs_file.o(.bss)
    dirent                                   0x2000202c   Data         260  dfs_file.o(.bss)
    .bss                                     0x20002130   Section     1635  dns.o(.bss)
    dns_table                                0x20002130   Data        1120  dns.o(.bss)
    dns_payload_buffer                       0x20002590   Data         515  dns.o(.bss)
    .bss                                     0x20002794   Section       20  tcp_in.o(.bss)
    inseg                                    0x20002794   Data          20  tcp_in.o(.bss)
    .bss                                     0x200027a8   Section       96  sockets.o(.bss)
    sockets                                  0x200027a8   Data          96  sockets.o(.bss)
    .bss                                     0x20002808   Section       16  ip_addr.o(.bss)
    str                                      0x20002808   Data          16  ip_addr.o(.bss)
    .bss                                     0x20002818   Section      200  etharp.o(.bss)
    arp_table                                0x20002818   Data         200  etharp.o(.bss)
    .bss                                     0x200028e0   Section     1456  ethernetif.o(.bss)
    eth_tx_thread_mb                         0x200028e0   Data          48  ethernetif.o(.bss)
    eth_tx_thread                            0x20002910   Data         128  ethernetif.o(.bss)
    eth_tx_thread_mb_pool                    0x20002990   Data          40  ethernetif.o(.bss)
    eth_tx_thread_stack                      0x200029b8   Data         512  ethernetif.o(.bss)
    eth_rx_thread_mb                         0x20002bb8   Data          48  ethernetif.o(.bss)
    eth_rx_thread                            0x20002be8   Data         128  ethernetif.o(.bss)
    eth_rx_thread_mb_pool                    0x20002c68   Data          40  ethernetif.o(.bss)
    eth_rx_thread_stack                      0x20002c90   Data         512  ethernetif.o(.bss)
    STACK                                    0x20002e90   Section     1024  startup_stm32f10x_hd.o(STACK)

    Global Symbols

    Symbol Name                              Value     Ov Type        Size  Object(Section)

    BuildAttributes$$THM_ISAv4$P$D$K$B$S$PE$A:L22UL41UL21$X:L11$S22US41US21$IEEE1$IW$USESV6$~STKCKD$USESV7$~SHL$OSPACE$EBA8$MICROLIB$REQ8$PRES8$EABIv2 0x00000000   Number         0  anon$$obj.o ABSOLUTE
    __ARM_use_no_argv                        0x00000000   Number         0  startup.o ABSOLUTE
    __Vectors_Size                           0x00000130   Number         0  startup_stm32f10x_hd.o ABSOLUTE
    __Vectors                                0x08000000   Data           4  startup_stm32f10x_hd.o(RESET)
    __Vectors_End                            0x08000130   Data           0  startup_stm32f10x_hd.o(RESET)
    __main                                   0x08000131   Thumb Code     0  entry.o(.ARM.Collect$$$$00000000)
    _main_stk                                0x08000131   Thumb Code     0  entry2.o(.ARM.Collect$$$$00000001)
    _main_scatterload                        0x08000135   Thumb Code     0  entry5.o(.ARM.Collect$$$$00000004)
    __main_after_scatterload                 0x08000139   Thumb Code     0  entry5.o(.ARM.Collect$$$$00000004)
    _main_init                               0x08000139   Thumb Code     0  entry7.o(.ARM.Collect$$$$00000007)
    Reset_Handler                            0x08000145   Thumb Code     8  startup_stm32f10x_hd.o(.text)
    ADC1_2_IRQHandler                        0x0800015f   Thumb Code     0  startup_stm32f10x_hd.o(.text)
    ADC3_IRQHandler                          0x0800015f   Thumb Code     0  startup_stm32f10x_hd.o(.text)
    CAN1_RX1_IRQHandler                      0x0800015f   Thumb Code     0  startup_stm32f10x_hd.o(.text)
    CAN1_SCE_IRQHandler                      0x0800015f   Thumb Code     0  startup_stm32f10x_hd.o(.text)
    DMA1_Channel1_IRQHandler                 0x0800015f   Thumb Code     0  startup_stm32f10x_hd.o(.text)
    DMA1_Channel2_IRQHandler                 0x0800015f   Thumb Code     0  startup_stm32f10x_hd.o(.text)
    DMA1_Channel3_IRQHandler                 0x0800015f   Thumb Code     0  startup_stm32f10x_hd.o(.text)
    DMA1_Channel4_IRQHandler                 0x0800015f   Thumb Code     0  startup_stm32f10x_hd.o(.text)
    DMA1_Channel5_IRQHandler                 0x0800015f   Thumb Code     0  startup_stm32f10x_hd.o(.text)
    DMA1_Channel6_IRQHandler                 0x0800015f   Thumb Code     0  startup_stm32f10x_hd.o(.text)
    DMA1_Channel7_IRQHandler                 0x0800015f   Thumb Code     0  startup_stm32f10x_hd.o(.text)
    DMA2_Channel1_IRQHandler                 0x0800015f   Thumb Code     0  startup_stm32f10x_hd.o(.text)
    DMA2_Channel2_IRQHandler                 0x0800015f   Thumb Code     0  startup_stm32f10x_hd.o(.text)
    DMA2_Channel3_IRQHandler                 0x0800015f   Thumb Code     0  startup_stm32f10x_hd.o(.text)
    DMA2_Channel4_5_IRQHandler               0x0800015f   Thumb Code     0  startup_stm32f10x_hd.o(.text)
    EXTI0_IRQHandler                         0x0800015f   Thumb Code     0  startup_stm32f10x_hd.o(.text)
    EXTI15_10_IRQHandler                     0x0800015f   Thumb Code     0  startup_stm32f10x_hd.o(.text)
    EXTI1_IRQHandler                         0x0800015f   Thumb Code     0  startup_stm32f10x_hd.o(.text)
    EXTI2_IRQHandler                         0x0800015f   Thumb Code     0  startup_stm32f10x_hd.o(.text)
    EXTI3_IRQHandler                         0x0800015f   Thumb Code     0  startup_stm32f10x_hd.o(.text)
    EXTI4_IRQHandler                         0x0800015f   Thumb Code     0  startup_stm32f10x_hd.o(.text)
    FLASH_IRQHandler                         0x0800015f   Thumb Code     0  startup_stm32f10x_hd.o(.text)
    FSMC_IRQHandler                          0x0800015f   Thumb Code     0  startup_stm32f10x_hd.o(.text)
    I2C1_ER_IRQHandler                       0x0800015f   Thumb Code     0  startup_stm32f10x_hd.o(.text)
    I2C1_EV_IRQHandler                       0x0800015f   Thumb Code     0  startup_stm32f10x_hd.o(.text)
    I2C2_ER_IRQHandler                       0x0800015f   Thumb Code     0  startup_stm32f10x_hd.o(.text)
    I2C2_EV_IRQHandler                       0x0800015f   Thumb Code     0  startup_stm32f10x_hd.o(.text)
    PVD_IRQHandler                           0x0800015f   Thumb Code     0  startup_stm32f10x_hd.o(.text)
    RCC_IRQHandler                           0x0800015f   Thumb Code     0  startup_stm32f10x_hd.o(.text)
    RTCAlarm_IRQHandler                      0x0800015f   Thumb Code     0  startup_stm32f10x_hd.o(.text)
    RTC_IRQHandler                           0x0800015f   Thumb Code     0  startup_stm32f10x_hd.o(.text)
    SDIO_IRQHandler                          0x0800015f   Thumb Code     0  startup_stm32f10x_hd.o(.text)
    SPI1_IRQHandler                          0x0800015f   Thumb Code     0  startup_stm32f10x_hd.o(.text)
    SPI2_IRQHandler                          0x0800015f   Thumb Code     0  startup_stm32f10x_hd.o(.text)
    SPI3_IRQHandler                          0x0800015f   Thumb Code     0  startup_stm32f10x_hd.o(.text)
    TAMPER_IRQHandler                        0x0800015f   Thumb Code     0  startup_stm32f10x_hd.o(.text)
    TIM1_BRK_IRQHandler                      0x0800015f   Thumb Code     0  startup_stm32f10x_hd.o(.text)
    TIM1_CC_IRQHandler                       0x0800015f   Thumb Code     0  startup_stm32f10x_hd.o(.text)
    TIM1_TRG_COM_IRQHandler                  0x0800015f   Thumb Code     0  startup_stm32f10x_hd.o(.text)
    TIM1_UP_IRQHandler                       0x0800015f   Thumb Code     0  startup_stm32f10x_hd.o(.text)
    TIM2_IRQHandler                          0x0800015f   Thumb Code     0  startup_stm32f10x_hd.o(.text)
    TIM3_IRQHandler                          0x0800015f   Thumb Code     0  startup_stm32f10x_hd.o(.text)
    TIM4_IRQHandler                          0x0800015f   Thumb Code     0  startup_stm32f10x_hd.o(.text)
    TIM5_IRQHandler                          0x0800015f   Thumb Code     0  startup_stm32f10x_hd.o(.text)
    TIM6_IRQHandler                          0x0800015f   Thumb Code     0  startup_stm32f10x_hd.o(.text)
    TIM7_IRQHandler                          0x0800015f   Thumb Code     0  startup_stm32f10x_hd.o(.text)
    TIM8_BRK_IRQHandler                      0x0800015f   Thumb Code     0  startup_stm32f10x_hd.o(.text)
    TIM8_CC_IRQHandler                       0x0800015f   Thumb Code     0  startup_stm32f10x_hd.o(.text)
    TIM8_TRG_COM_IRQHandler                  0x0800015f   Thumb Code     0  startup_stm32f10x_hd.o(.text)
    TIM8_UP_IRQHandler                       0x0800015f   Thumb Code     0  startup_stm32f10x_hd.o(.text)
    UART4_IRQHandler                         0x0800015f   Thumb Code     0  startup_stm32f10x_hd.o(.text)
    UART5_IRQHandler                         0x0800015f   Thumb Code     0  startup_stm32f10x_hd.o(.text)
    USBWakeUp_IRQHandler                     0x0800015f   Thumb Code     0  startup_stm32f10x_hd.o(.text)
    USB_HP_CAN1_TX_IRQHandler                0x0800015f   Thumb Code     0  startup_stm32f10x_hd.o(.text)
    USB_LP_CAN1_RX0_IRQHandler               0x0800015f   Thumb Code     0  startup_stm32f10x_hd.o(.text)
    WWDG_IRQHandler                          0x0800015f   Thumb Code     0  startup_stm32f10x_hd.o(.text)
    rt_hw_interrupt_disable                  0x08000169   Thumb Code     8  context_rvds.o(.text)
    rt_hw_interrupt_enable                   0x08000171   Thumb Code     6  context_rvds.o(.text)
    rt_hw_context_switch                     0x08000177   Thumb Code    32  context_rvds.o(.text)
    rt_hw_context_switch_interrupt           0x08000177   Thumb Code     0  context_rvds.o(.text)
    PendSV_Handler                           0x08000197   Thumb Code    60  context_rvds.o(.text)
    rt_hw_context_switch_to                  0x080001d3   Thumb Code    56  context_rvds.o(.text)
    rt_hw_interrupt_thread_switch            0x0800020b   Thumb Code     4  context_rvds.o(.text)
    HardFault_Handler                        0x0800020f   Thumb Code    48  context_rvds.o(.text)
    rt_hw_stack_init                         0x08000259   Thumb Code    70  cpuport.o(.text)
    rt_hw_exception_install                  0x0800029f   Thumb Code     6  cpuport.o(.text)
    rt_hw_hard_fault_exception               0x08000467   Thumb Code   198  cpuport.o(.text)
    rt_hw_cpu_shutdown                       0x0800052d   Thumb Code    32  cpuport.o(.text)
    NMI_Handler                              0x0800084d   Thumb Code     2  stm32f10x_it.o(.text)
    MemManage_Handler                        0x0800084f   Thumb Code     4  stm32f10x_it.o(.text)
    BusFault_Handler                         0x08000853   Thumb Code     4  stm32f10x_it.o(.text)
    UsageFault_Handler                       0x08000857   Thumb Code     4  stm32f10x_it.o(.text)
    SVC_Handler                              0x0800085b   Thumb Code     2  stm32f10x_it.o(.text)
    DebugMon_Handler                         0x0800085d   Thumb Code     2  stm32f10x_it.o(.text)
    assert_failed                            0x08000861   Thumb Code    30  startup.o(.text)
    rtthread_startup                         0x0800087f   Thumb Code    54  startup.o(.text)
    main                                     0x080008b5   Thumb Code    16  startup.o(.text)
    rt_init_thread_entry                     0x08000ae1   Thumb Code    96  application.o(.text)
    rt_application_init                      0x08000b41   Thumb Code   184  application.o(.text)
    tcpserv                                  0x08000d91   Thumb Code   316  tcpserver.o(.text)
    NVIC_PriorityGroupConfig                 0x08000f85   Thumb Code    10  misc.o(.text)
    NVIC_Init                                0x08000f8f   Thumb Code   118  misc.o(.text)
    NVIC_SetVectorTable                      0x08001005   Thumb Code    12  misc.o(.text)
    NVIC_SystemLPConfig                      0x08001011   Thumb Code    38  misc.o(.text)
    SysTick_CLKSourceConfig                  0x08001037   Thumb Code    40  misc.o(.text)
    EXTI_DeInit                              0x0800107d   Thumb Code    30  stm32f10x_exti.o(.text)
    EXTI_Init                                0x0800109b   Thumb Code   160  stm32f10x_exti.o(.text)
    EXTI_StructInit                          0x0800113b   Thumb Code    16  stm32f10x_exti.o(.text)
    EXTI_GenerateSWInterrupt                 0x0800114b   Thumb Code    16  stm32f10x_exti.o(.text)
    EXTI_GetFlagStatus                       0x0800115b   Thumb Code    20  stm32f10x_exti.o(.text)
    EXTI_ClearFlag                           0x0800116f   Thumb Code     6  stm32f10x_exti.o(.text)
    EXTI_GetITStatus                         0x08001175   Thumb Code    34  stm32f10x_exti.o(.text)
    EXTI_ClearITPendingBit                   0x08001197   Thumb Code     6  stm32f10x_exti.o(.text)
    GPIO_DeInit                              0x080011b9   Thumb Code   172  stm32f10x_gpio.o(.text)
    GPIO_AFIODeInit                          0x08001265   Thumb Code    20  stm32f10x_gpio.o(.text)
    GPIO_Init                                0x08001279   Thumb Code   274  stm32f10x_gpio.o(.text)
    GPIO_StructInit                          0x0800138b   Thumb Code    16  stm32f10x_gpio.o(.text)
    GPIO_ReadInputDataBit                    0x0800139b   Thumb Code    18  stm32f10x_gpio.o(.text)
    GPIO_ReadInputData                       0x080013ad   Thumb Code     8  stm32f10x_gpio.o(.text)
    GPIO_ReadOutputDataBit                   0x080013b5   Thumb Code    18  stm32f10x_gpio.o(.text)
    GPIO_ReadOutputData                      0x080013c7   Thumb Code     8  stm32f10x_gpio.o(.text)
    GPIO_SetBits                             0x080013cf   Thumb Code     4  stm32f10x_gpio.o(.text)
    GPIO_ResetBits                           0x080013d3   Thumb Code     4  stm32f10x_gpio.o(.text)
    GPIO_WriteBit                            0x080013d7   Thumb Code    10  stm32f10x_gpio.o(.text)
    GPIO_Write                               0x080013e1   Thumb Code     4  stm32f10x_gpio.o(.text)
    GPIO_PinLockConfig                       0x080013e5   Thumb Code    18  stm32f10x_gpio.o(.text)
    GPIO_EventOutputConfig                   0x080013f7   Thumb Code    26  stm32f10x_gpio.o(.text)
    GPIO_EventOutputCmd                      0x08001411   Thumb Code     6  stm32f10x_gpio.o(.text)
    GPIO_PinRemapConfig                      0x08001417   Thumb Code   138  stm32f10x_gpio.o(.text)
    GPIO_EXTILineConfig                      0x080014a1   Thumb Code    66  stm32f10x_gpio.o(.text)
    GPIO_ETH_MediaInterfaceConfig            0x080014e3   Thumb Code     6  stm32f10x_gpio.o(.text)
    RCC_DeInit                               0x08001511   Thumb Code    64  stm32f10x_rcc.o(.text)
    RCC_HSEConfig                            0x08001551   Thumb Code    70  stm32f10x_rcc.o(.text)
    RCC_GetFlagStatus                        0x08001597   Thumb Code    56  stm32f10x_rcc.o(.text)
    RCC_WaitForHSEStartUp                    0x080015cf   Thumb Code    48  stm32f10x_rcc.o(.text)
    RCC_AdjustHSICalibrationValue            0x080015ff   Thumb Code    20  stm32f10x_rcc.o(.text)
    RCC_HSICmd                               0x08001613   Thumb Code     6  stm32f10x_rcc.o(.text)
    RCC_PLLConfig                            0x08001619   Thumb Code    24  stm32f10x_rcc.o(.text)
    RCC_PLLCmd                               0x08001631   Thumb Code     6  stm32f10x_rcc.o(.text)
    RCC_SYSCLKConfig                         0x08001637   Thumb Code    18  stm32f10x_rcc.o(.text)
    RCC_GetSYSCLKSource                      0x08001649   Thumb Code    10  stm32f10x_rcc.o(.text)
    RCC_HCLKConfig                           0x08001653   Thumb Code    18  stm32f10x_rcc.o(.text)
    RCC_PCLK1Config                          0x08001665   Thumb Code    18  stm32f10x_rcc.o(.text)
    RCC_PCLK2Config                          0x08001677   Thumb Code    20  stm32f10x_rcc.o(.text)
    RCC_ITConfig                             0x0800168b   Thumb Code    30  stm32f10x_rcc.o(.text)
    RCC_USBCLKConfig                         0x080016a9   Thumb Code     6  stm32f10x_rcc.o(.text)
    RCC_ADCCLKConfig                         0x080016af   Thumb Code    18  stm32f10x_rcc.o(.text)
    RCC_LSEConfig                            0x080016c1   Thumb Code    44  stm32f10x_rcc.o(.text)
    RCC_LSICmd                               0x080016ed   Thumb Code     6  stm32f10x_rcc.o(.text)
    RCC_RTCCLKConfig                         0x080016f3   Thumb Code    12  stm32f10x_rcc.o(.text)
    RCC_RTCCLKCmd                            0x080016ff   Thumb Code     6  stm32f10x_rcc.o(.text)
    RCC_GetClocksFreq                        0x08001705   Thumb Code   192  stm32f10x_rcc.o(.text)
    RCC_AHBPeriphClockCmd                    0x080017c5   Thumb Code    26  stm32f10x_rcc.o(.text)
    RCC_APB2PeriphClockCmd                   0x080017df   Thumb Code    26  stm32f10x_rcc.o(.text)
    RCC_APB1PeriphClockCmd                   0x080017f9   Thumb Code    26  stm32f10x_rcc.o(.text)
    RCC_APB2PeriphResetCmd                   0x08001813   Thumb Code    26  stm32f10x_rcc.o(.text)
    RCC_APB1PeriphResetCmd                   0x0800182d   Thumb Code    26  stm32f10x_rcc.o(.text)
    RCC_BackupResetCmd                       0x08001847   Thumb Code     6  stm32f10x_rcc.o(.text)
    RCC_ClockSecuritySystemCmd               0x0800184d   Thumb Code     6  stm32f10x_rcc.o(.text)
    RCC_MCOConfig                            0x08001853   Thumb Code     6  stm32f10x_rcc.o(.text)
    RCC_ClearFlag                            0x08001859   Thumb Code    14  stm32f10x_rcc.o(.text)
    RCC_GetITStatus                          0x08001867   Thumb Code    20  stm32f10x_rcc.o(.text)
    RCC_ClearITPendingBit                    0x0800187b   Thumb Code     6  stm32f10x_rcc.o(.text)
    SPI_I2S_DeInit                           0x080018b5   Thumb Code    76  stm32f10x_spi.o(.text)
    SPI_Init                                 0x08001901   Thumb Code    60  stm32f10x_spi.o(.text)
    I2S_Init                                 0x0800193d   Thumb Code   222  stm32f10x_spi.o(.text)
    SPI_StructInit                           0x08001a1b   Thumb Code    24  stm32f10x_spi.o(.text)
    I2S_StructInit                           0x08001a33   Thumb Code    20  stm32f10x_spi.o(.text)
    SPI_Cmd                                  0x08001a47   Thumb Code    24  stm32f10x_spi.o(.text)
    I2S_Cmd                                  0x08001a5f   Thumb Code    24  stm32f10x_spi.o(.text)
    SPI_I2S_ITConfig                         0x08001a77   Thumb Code    36  stm32f10x_spi.o(.text)
    SPI_I2S_DMACmd                           0x08001a9b   Thumb Code    24  stm32f10x_spi.o(.text)
    SPI_I2S_SendData                         0x08001ab3   Thumb Code     4  stm32f10x_spi.o(.text)
    SPI_I2S_ReceiveData                      0x08001ab7   Thumb Code     6  stm32f10x_spi.o(.text)
    SPI_NSSInternalSoftwareConfig            0x08001abd   Thumb Code    30  stm32f10x_spi.o(.text)
    SPI_SSOutputCmd                          0x08001adb   Thumb Code    24  stm32f10x_spi.o(.text)
    SPI_DataSizeConfig                       0x08001af3   Thumb Code    18  stm32f10x_spi.o(.text)
    SPI_TransmitCRC                          0x08001b05   Thumb Code    10  stm32f10x_spi.o(.text)
    SPI_CalculateCRC                         0x08001b0f   Thumb Code    24  stm32f10x_spi.o(.text)
    SPI_GetCRC                               0x08001b27   Thumb Code    16  stm32f10x_spi.o(.text)
    SPI_GetCRCPolynomial                     0x08001b37   Thumb Code     6  stm32f10x_spi.o(.text)
    SPI_BiDirectionalLineConfig              0x08001b3d   Thumb Code    28  stm32f10x_spi.o(.text)
    SPI_I2S_GetFlagStatus                    0x08001b59   Thumb Code    18  stm32f10x_spi.o(.text)
    SPI_I2S_ClearFlag                        0x08001b6b   Thumb Code     6  stm32f10x_spi.o(.text)
    SPI_I2S_GetITStatus                      0x08001b71   Thumb Code    52  stm32f10x_spi.o(.text)
    SPI_I2S_ClearITPendingBit                0x08001ba5   Thumb Code    20  stm32f10x_spi.o(.text)
    USART_DeInit                             0x08001bc5   Thumb Code   134  stm32f10x_usart.o(.text)
    USART_Init                               0x08001c4b   Thumb Code   210  stm32f10x_usart.o(.text)
    USART_StructInit                         0x08001d1d   Thumb Code    24  stm32f10x_usart.o(.text)
    USART_ClockInit                          0x08001d35   Thumb Code    34  stm32f10x_usart.o(.text)
    USART_ClockStructInit                    0x08001d57   Thumb Code    12  stm32f10x_usart.o(.text)
    USART_Cmd                                0x08001d63   Thumb Code    24  stm32f10x_usart.o(.text)
    USART_ITConfig                           0x08001d7b   Thumb Code    74  stm32f10x_usart.o(.text)
    USART_DMACmd                             0x08001dc5   Thumb Code    24  stm32f10x_usart.o(.text)
    USART_SetAddress                         0x08001ddd   Thumb Code    18  stm32f10x_usart.o(.text)
    USART_WakeUpConfig                       0x08001def   Thumb Code    18  stm32f10x_usart.o(.text)
    USART_ReceiverWakeUpCmd                  0x08001e01   Thumb Code    24  stm32f10x_usart.o(.text)
    USART_LINBreakDetectLengthConfig         0x08001e19   Thumb Code    18  stm32f10x_usart.o(.text)
    USART_LINCmd                             0x08001e2b   Thumb Code    24  stm32f10x_usart.o(.text)
    USART_SendData                           0x08001e43   Thumb Code     8  stm32f10x_usart.o(.text)
    USART_ReceiveData                        0x08001e4b   Thumb Code    10  stm32f10x_usart.o(.text)
    USART_SendBreak                          0x08001e55   Thumb Code    10  stm32f10x_usart.o(.text)
    USART_SetGuardTime                       0x08001e5f   Thumb Code    16  stm32f10x_usart.o(.text)
    USART_SetPrescaler                       0x08001e6f   Thumb Code    16  stm32f10x_usart.o(.text)
    USART_SmartCardCmd                       0x08001e7f   Thumb Code    24  stm32f10x_usart.o(.text)
    USART_SmartCardNACKCmd                   0x08001e97   Thumb Code    24  stm32f10x_usart.o(.text)
    USART_HalfDuplexCmd                      0x08001eaf   Thumb Code    24  stm32f10x_usart.o(.text)
    USART_OverSampling8Cmd                   0x08001ec7   Thumb Code    22  stm32f10x_usart.o(.text)
    USART_OneBitMethodCmd                    0x08001edd   Thumb Code    24  stm32f10x_usart.o(.text)
    USART_IrDAConfig                         0x08001ef5   Thumb Code    18  stm32f10x_usart.o(.text)
    USART_IrDACmd                            0x08001f07   Thumb Code    24  stm32f10x_usart.o(.text)
    USART_GetFlagStatus                      0x08001f1f   Thumb Code    26  stm32f10x_usart.o(.text)
    USART_ClearFlag                          0x08001f39   Thumb Code    18  stm32f10x_usart.o(.text)
    USART_GetITStatus                        0x08001f4b   Thumb Code    84  stm32f10x_usart.o(.text)
    USART_ClearITPendingBit                  0x08001f9f   Thumb Code    50  stm32f10x_usart.o(.text)
    SystemInit                               0x08002099   Thumb Code    78  system_stm32f10x.o(.text)
    SystemCoreClockUpdate                    0x080020e7   Thumb Code   142  system_stm32f10x.o(.text)
    rt_system_tick_init                      0x08002199   Thumb Code     2  clock.o(.text)
    rt_tick_get                              0x0800219b   Thumb Code     6  clock.o(.text)
    rt_tick_set                              0x080021a1   Thumb Code    22  clock.o(.text)
    rt_tick_increase                         0x080021b7   Thumb Code    42  clock.o(.text)
    rt_tick_from_millisecond                 0x080021e1   Thumb Code    22  clock.o(.text)
    rt_device_find                           0x080021fd   Thumb Code    76  device.o(.text)
    rt_device_register                       0x08002249   Thumb Code    50  device.o(.text)
    rt_device_unregister                     0x0800227b   Thumb Code    38  device.o(.text)
    rt_device_init_all                       0x080022a1   Thumb Code    74  device.o(.text)
    rt_device_init                           0x080022eb   Thumb Code    76  device.o(.text)
    rt_device_open                           0x08002337   Thumb Code   164  device.o(.text)
    rt_device_close                          0x080023db   Thumb Code    82  device.o(.text)
    rt_device_read                           0x0800242d   Thumb Code    92  device.o(.text)
    rt_device_write                          0x08002489   Thumb Code    92  device.o(.text)
    rt_device_control                        0x080024e5   Thumb Code    58  device.o(.text)
    rt_device_set_rx_indicate                0x0800251f   Thumb Code    38  device.o(.text)
    rt_device_set_tx_complete                0x08002545   Thumb Code    38  device.o(.text)
    rt_thread_idle_sethook                   0x08002611   Thumb Code     6  idle.o(.text)
    rt_thread_idle_excute                    0x08002617   Thumb Code   174  idle.o(.text)
    rt_thread_idle_init                      0x080026d9   Thumb Code    34  idle.o(.text)
    rt_sem_init                              0x08002821   Thumb Code    66  ipc.o(.text)
    rt_sem_detach                            0x08002863   Thumb Code    46  ipc.o(.text)
    rt_sem_create                            0x08002891   Thumb Code   100  ipc.o(.text)
    rt_sem_delete                            0x080028f5   Thumb Code   102  ipc.o(.text)
    rt_sem_take                              0x0800295b   Thumb Code   302  ipc.o(.text)
    rt_sem_trytake                           0x08002a89   Thumb Code    14  ipc.o(.text)
    rt_sem_release                           0x08002a97   Thumb Code    80  ipc.o(.text)
    rt_sem_control                           0x08002ae7   Thumb Code    80  ipc.o(.text)
    rt_mutex_init                            0x08002b37   Thumb Code    74  ipc.o(.text)
    rt_mutex_detach                          0x08002b81   Thumb Code    48  ipc.o(.text)
    rt_mutex_create                          0x08002bb1   Thumb Code   320  ipc.o(.text)
    rt_mutex_delete                          0x08002cf1   Thumb Code   112  ipc.o(.text)
    rt_mutex_take                            0x08002d61   Thumb Code   384  ipc.o(.text)
    rt_mutex_release                         0x08002ee1   Thumb Code   300  ipc.o(.text)
    rt_mutex_control                         0x0800300d   Thumb Code     8  ipc.o(.text)
    rt_event_init                            0x08003015   Thumb Code    64  ipc.o(.text)
    rt_event_detach                          0x08003055   Thumb Code    50  ipc.o(.text)
    rt_event_create                          0x08003087   Thumb Code   158  ipc.o(.text)
    rt_event_delete                          0x08003125   Thumb Code   112  ipc.o(.text)
    rt_event_send                            0x08003195   Thumb Code   230  ipc.o(.text)
    rt_event_recv                            0x0800327b   Thumb Code   440  ipc.o(.text)
    rt_event_control                         0x08003433   Thumb Code    84  ipc.o(.text)
    rt_mb_init                               0x08003487   Thumb Code    94  ipc.o(.text)
    rt_mb_detach                             0x080034e5   Thumb Code   112  ipc.o(.text)
    rt_mb_create                             0x08003555   Thumb Code   146  ipc.o(.text)
    rt_mb_delete                             0x080035e7   Thumb Code   126  ipc.o(.text)
    rt_mb_send_wait                          0x08003665   Thumb Code   434  ipc.o(.text)
    rt_mb_send                               0x08003817   Thumb Code    18  ipc.o(.text)
    rt_mb_recv                               0x08003829   Thumb Code   494  ipc.o(.text)
    rt_mb_control                            0x08003a17   Thumb Code    96  ipc.o(.text)
    rt_mq_init                               0x08003a77   Thumb Code   138  ipc.o(.text)
    rt_mq_detach                             0x08003b01   Thumb Code    50  ipc.o(.text)
    rt_mq_delete                             0x08003b33   Thumb Code   116  ipc.o(.text)
    rt_mq_create                             0x08003ba7   Thumb Code   192  ipc.o(.text)
    rt_mq_send                               0x08003c67   Thumb Code   248  ipc.o(.text)
    rt_mq_urgent                             0x08003d5f   Thumb Code   330  ipc.o(.text)
    rt_mq_recv                               0x08003ea9   Thumb Code   520  ipc.o(.text)
    rt_mq_control                            0x080040b1   Thumb Code   110  ipc.o(.text)
    rt_interrupt_enter                       0x08004175   Thumb Code    30  irq.o(.text)
    rt_interrupt_leave                       0x08004193   Thumb Code    30  irq.o(.text)
    rt_interrupt_get_nest                    0x080041b1   Thumb Code     6  irq.o(.text)
    rt_get_errno                             0x080041bd   Thumb Code    32  kservice.o(.text)
    rt_set_errno                             0x080041dd   Thumb Code    36  kservice.o(.text)
    _rt_errno                                0x08004201   Thumb Code    30  kservice.o(.text)
    rt_memset                                0x0800421f   Thumb Code    72  kservice.o(.text)
    rt_memcpy                                0x08004267   Thumb Code   120  kservice.o(.text)
    rt_memmove                               0x080042df   Thumb Code    66  kservice.o(.text)
    rt_memcmp                                0x08004321   Thumb Code    38  kservice.o(.text)
    rt_strlen                                0x08004347   Thumb Code    18  kservice.o(.text)
    rt_strstr                                0x08004359   Thumb Code    58  kservice.o(.text)
    rt_strcasecmp                            0x08004393   Thumb Code    48  kservice.o(.text)
    rt_strncpy                               0x080043c3   Thumb Code    52  kservice.o(.text)
    rt_strncmp                               0x080043f7   Thumb Code    40  kservice.o(.text)
    rt_strcmp                                0x0800441f   Thumb Code    28  kservice.o(.text)
    rt_strdup                                0x0800443b   Thumb Code    40  kservice.o(.text)
    rt_hw_console_output                     0x08004463   Thumb Code     2  kservice.o(.text)
    rt_vsnprintf                             0x080045eb   Thumb Code   796  kservice.o(.text)
    rt_kprintf                               0x08004907   Thumb Code    92  kservice.o(.text)
    rt_show_version                          0x08004963   Thumb Code    38  kservice.o(.text)
    rt_snprintf                              0x08004989   Thumb Code    34  kservice.o(.text)
    rt_vsprintf                              0x080049ab   Thumb Code    22  kservice.o(.text)
    rt_sprintf                               0x080049c1   Thumb Code    30  kservice.o(.text)
    rt_console_get_device                    0x080049df   Thumb Code     6  kservice.o(.text)
    rt_console_set_device                    0x080049e5   Thumb Code    48  kservice.o(.text)
    rt_malloc_align                          0x08004a15   Thumb Code    66  kservice.o(.text)
    rt_free_align                            0x08004a57   Thumb Code    16  kservice.o(.text)
    __rt_ffs                                 0x08004a67   Thumb Code    72  kservice.o(.text)
    rt_malloc_sethook                        0x08004b4d   Thumb Code     6  mem.o(.text)
    rt_free_sethook                          0x08004b53   Thumb Code     6  mem.o(.text)
    rt_system_heap_init                      0x08004c21   Thumb Code   220  mem.o(.text)
    rt_malloc                                0x08004cfd   Thumb Code   968  mem.o(.text)
    rt_free                                  0x080050c5   Thumb Code   322  mem.o(.text)
    rt_realloc                               0x08005207   Thumb Code   330  mem.o(.text)
    rt_calloc                                0x08005351   Thumb Code    98  mem.o(.text)
    rt_memory_info                           0x080053b3   Thumb Code    26  mem.o(.text)
    list_mem                                 0x080053cd   Thumb Code    34  mem.o(.text)
    rt_object_attach_sethook                 0x080054e5   Thumb Code     6  object.o(.text)
    rt_object_detach_sethook                 0x080054eb   Thumb Code     6  object.o(.text)
    rt_object_trytake_sethook                0x080054f1   Thumb Code     6  object.o(.text)
    rt_object_take_sethook                   0x080054f7   Thumb Code     6  object.o(.text)
    rt_object_put_sethook                    0x080054fd   Thumb Code     6  object.o(.text)
    rt_system_object_init                    0x08005503   Thumb Code     2  object.o(.text)
    rt_object_get_information                0x08005505   Thumb Code    10  object.o(.text)
    rt_object_init                           0x0800550f   Thumb Code    76  object.o(.text)
    rt_object_detach                         0x0800555b   Thumb Code    68  object.o(.text)
    rt_object_allocate                       0x0800559f   Thumb Code   148  object.o(.text)
    rt_object_delete                         0x08005633   Thumb Code   108  object.o(.text)
    rt_object_is_systemobject                0x0800569f   Thumb Code    46  object.o(.text)
    rt_object_find                           0x080056cd   Thumb Code   110  object.o(.text)
    rt_scheduler_sethook                     0x080057f5   Thumb Code     6  scheduler.o(.text)
    rt_system_scheduler_init                 0x08005859   Thumb Code    56  scheduler.o(.text)
    rt_system_scheduler_start                0x08005891   Thumb Code    36  scheduler.o(.text)
    rt_schedule                              0x080058b5   Thumb Code   132  scheduler.o(.text)
    rt_schedule_insert_thread                0x08005939   Thumb Code    94  scheduler.o(.text)
    rt_schedule_remove_thread                0x08005997   Thumb Code   106  scheduler.o(.text)
    rt_enter_critical                        0x08005a01   Thumb Code    28  scheduler.o(.text)
    rt_exit_critical                         0x08005a1d   Thumb Code    54  scheduler.o(.text)
    rt_critical_level                        0x08005a53   Thumb Code     8  scheduler.o(.text)
    rt_thread_timeout                        0x08005b81   Thumb Code    90  thread.o(.text)
    rt_thread_init                           0x08005c7d   Thumb Code   112  thread.o(.text)
    rt_thread_self                           0x08005ced   Thumb Code     6  thread.o(.text)
    rt_thread_resume                         0x08005cf3   Thumb Code    90  thread.o(.text)
    rt_thread_startup                        0x08005d4d   Thumb Code   112  thread.o(.text)
    rt_thread_detach                         0x08005dbd   Thumb Code    84  thread.o(.text)
    rt_thread_create                         0x08005e11   Thumb Code    84  thread.o(.text)
    rt_thread_delete                         0x08005e65   Thumb Code    76  thread.o(.text)
    rt_thread_yield                          0x08005eb1   Thumb Code    88  thread.o(.text)
    rt_thread_suspend                        0x08005f09   Thumb Code   320  thread.o(.text)
    rt_thread_sleep                          0x08006049   Thumb Code    90  thread.o(.text)
    rt_thread_delay                          0x080060a3   Thumb Code    12  thread.o(.text)
    rt_thread_control                        0x080060af   Thumb Code   144  thread.o(.text)
    rt_thread_find                           0x0800613f   Thumb Code    76  thread.o(.text)
    rt_timer_timeout_sethook                 0x080061ab   Thumb Code     6  timer.o(.text)
    rt_timer_dump                            0x08006261   Thumb Code    46  timer.o(.text)
    rt_timer_init                            0x0800628f   Thumb Code    74  timer.o(.text)
    rt_timer_detach                          0x080062d9   Thumb Code    56  timer.o(.text)
    rt_timer_create                          0x08006311   Thumb Code    54  timer.o(.text)
    rt_timer_delete                          0x08006347   Thumb Code    58  timer.o(.text)
    rt_timer_start                           0x08006381   Thumb Code   312  timer.o(.text)
    rt_timer_stop                            0x080064b9   Thumb Code    92  timer.o(.text)
    rt_timer_control                         0x08006515   Thumb Code    92  timer.o(.text)
    rt_timer_check                           0x08006571   Thumb Code   296  timer.o(.text)
    rt_timer_next_timeout_tick               0x08006699   Thumb Code    10  timer.o(.text)
    rt_system_timer_init                     0x080066a3   Thumb Code    24  timer.o(.text)
    rt_system_timer_thread_init              0x080066bb   Thumb Code     2  timer.o(.text)
    NVIC_Configuration                       0x080066d9   Thumb Code    14  board.o(.text)
    SysTick_Handler                          0x080066e7   Thumb Code    16  board.o(.text)
    rt_hw_board_init                         0x080066f7   Thumb Code    98  board.o(.text)
    rt_hw_led_init                           0x0800676d   Thumb Code   144  led.o(.text)
    rt_hw_led_on                             0x080067fd   Thumb Code   100  led.o(.text)
    rt_hw_led_off                            0x08006861   Thumb Code   100  led.o(.text)
    rt_hw_led_all_on                         0x080068c5   Thumb Code    40  led.o(.text)
    rt_hw_led_mutex                          0x080068ed   Thumb Code   254  led.o(.text)
    led                                      0x080069eb   Thumb Code   118  led.o(.text)
    USART1_IRQHandler                        0x08006bef   Thumb Code    64  usart.o(.text)
    USART2_IRQHandler                        0x08006c2f   Thumb Code    64  usart.o(.text)
    USART3_IRQHandler                        0x08006c6f   Thumb Code    64  usart.o(.text)
    usart1_puts                              0x08006d8b   Thumb Code    38  usart.o(.text)
    rt_hw_usart_init                         0x08006db1   Thumb Code   332  usart.o(.text)
    rt_spi_bus_register                      0x08006efd   Thumb Code    50  spi_core.o(.text)
    rt_spi_bus_attach_device                 0x08006f2f   Thumb Code    74  spi_core.o(.text)
    rt_spi_configure                         0x08006f79   Thumb Code   118  spi_core.o(.text)
    rt_spi_send_then_send                    0x08006fef   Thumb Code   274  spi_core.o(.text)
    rt_spi_send_then_recv                    0x08007101   Thumb Code   278  spi_core.o(.text)
    rt_spi_transfer                          0x08007217   Thumb Code   230  spi_core.o(.text)
    rt_spi_transfer_message                  0x080072fd   Thumb Code   336  spi_core.o(.text)
    rt_spi_take_bus                          0x0800744d   Thumb Code   166  spi_core.o(.text)
    rt_spi_release_bus                       0x080074f3   Thumb Code   114  spi_core.o(.text)
    rt_spi_take                              0x08007565   Thumb Code   108  spi_core.o(.text)
    rt_spi_release                           0x080075d1   Thumb Code   108  spi_core.o(.text)
    rt_spi_bus_device_init                   0x08007777   Thumb Code    74  spi_dev.o(.text)
    rt_spidev_device_init                    0x080078cb   Thumb Code    74  spi_dev.o(.text)
    stm32_spi_register                       0x08007b91   Thumb Code    86  rt_stm32f10x_spi.o(.text)
    enc28j60_isr                             0x08007e73   Thumb Code    10  enc28j60.o(.text)
    enc28j60_attach                          0x08008613   Thumb Code   264  enc28j60.o(.text)
    EXTI_Enable                              0x080088f1   Thumb Code   106  enc28j60.o(.text)
    rt_hw_stm32_eth_init                     0x0800895b   Thumb Code   808  enc28j60.o(.text)
    EXTI9_5_IRQHandler                       0x08008c83   Thumb Code    30  enc28j60.o(.text)
    rt_hw_lcd_init_output                    0x08008ce9   Thumb Code   184  lcd1602.o(.text)
    rt_hw_lcd_init_data_input                0x08008da1   Thumb Code   136  lcd1602.o(.text)
    rt_hw_lcd_init_data_output               0x08008e29   Thumb Code   136  lcd1602.o(.text)
    rt_hw_lcd_RD_set_reset                   0x08008eb1   Thumb Code    40  lcd1602.o(.text)
    rt_hw_lcd_WR_set_reset                   0x08008ed9   Thumb Code    40  lcd1602.o(.text)
    rt_hw_lcd_EN_set_reset                   0x08008f01   Thumb Code    40  lcd1602.o(.text)
    rt_hw_lcd_data_set_reset                 0x08008f29   Thumb Code   230  lcd1602.o(.text)
    LCD_Check_Busy                           0x0800900f   Thumb Code    58  lcd1602.o(.text)
    LCD_Write_Com                            0x08009049   Thumb Code    74  lcd1602.o(.text)
    LCD_Write_Data                           0x08009093   Thumb Code    74  lcd1602.o(.text)
    LCD_Clear                                0x080090dd   Thumb Code    20  lcd1602.o(.text)
    LCD_Write_String                         0x080090f1   Thumb Code    50  lcd1602.o(.text)
    LCD_Write_Digital                        0x08009123   Thumb Code    90  lcd1602.o(.text)
    LCD_Write_Char                           0x0800917d   Thumb Code    40  lcd1602.o(.text)
    rt_hw_lcd1602_init                       0x080091a5   Thumb Code    80  lcd1602.o(.text)
    LCD_CLOSE                                0x080091f5   Thumb Code    10  lcd1602.o(.text)
    TestIO                                   0x080091ff   Thumb Code    14  lcd1602.o(.text)
    rt_hw_stm32_dsp_instruction_init         0x0800920d   Thumb Code   126  spi_instruction.o(.text)
    spi_instruction_write                    0x080092cb   Thumb Code    36  spi_instruction.o(.text)
    rt_hw_key_init                           0x08009329   Thumb Code    50  key_input.o(.text)
    rt_read_key_value                        0x0800935b   Thumb Code    46  key_input.o(.text)
    rt_handle_key_input                      0x08009389   Thumb Code   136  key_input.o(.text)
    IIC_Init                                 0x0800943d   Thumb Code    60  iic_cs4385.o(.text)
    IIC_Start                                0x08009479   Thumb Code    90  iic_cs4385.o(.text)
    IIC_Stop                                 0x080094d3   Thumb Code    76  iic_cs4385.o(.text)
    IIC_Wait_Ack                             0x0800951f   Thumb Code   104  iic_cs4385.o(.text)
    IIC_Ack                                  0x08009587   Thumb Code   114  iic_cs4385.o(.text)
    IIC_NAck                                 0x080095f9   Thumb Code    90  iic_cs4385.o(.text)
    IIC_Send_Byte                            0x08009653   Thumb Code   118  iic_cs4385.o(.text)
    IIC_Read_Byte                            0x080096c9   Thumb Code    90  iic_cs4385.o(.text)
    cs4385_write                             0x08009723   Thumb Code    70  iic_cs4385.o(.text)
    cs4385_read                              0x08009769   Thumb Code    82  iic_cs4385.o(.text)
    cs4385_set_iic_mode                      0x080097bb   Thumb Code   270  iic_cs4385.o(.text)
    rt_components_board_init                 0x080098d5   Thumb Code    20  components.o(.text)
    rt_components_init                       0x080098e9   Thumb Code    20  components.o(.text)
    rt_data_queue_init                       0x08009917   Thumb Code    94  dataqueue.o(.text)
    rt_data_queue_push                       0x08009975   Thumb Code   310  dataqueue.o(.text)
    rt_data_queue_pop                        0x08009aab   Thumb Code   406  dataqueue.o(.text)
    rt_data_queue_peak                       0x08009c41   Thumb Code   110  dataqueue.o(.text)
    rt_data_queue_reset                      0x08009caf   Thumb Code   252  dataqueue.o(.text)
    rt_hw_serial_register                    0x0800a16b   Thumb Code   258  serial.o(.text)
    rt_hw_serial_isr                         0x0800a26d   Thumb Code   180  serial.o(.text)
    rt_hw_serial_dma_tx_isr                  0x0800a321   Thumb Code    64  serial.o(.text)
    hello                                    0x0800a3a5   Thumb Code    12  cmd.o(.text)
    version                                  0x0800a3b1   Thumb Code    10  cmd.o(.text)
    list_thread                              0x0800a469   Thumb Code    10  cmd.o(.text)
    list_sem                                 0x0800a507   Thumb Code    12  cmd.o(.text)
    list_event                               0x0800a573   Thumb Code    12  cmd.o(.text)
    list_mutex                               0x0800a5c1   Thumb Code    12  cmd.o(.text)
    list_mailbox                             0x0800a645   Thumb Code    12  cmd.o(.text)
    list_msgqueue                            0x0800a6bd   Thumb Code    12  cmd.o(.text)
    list_mempool                             0x0800a72b   Thumb Code    12  cmd.o(.text)
    list_timer                               0x0800ab69   Thumb Code    10  cmd.o(.text)
    list_device                              0x0800abc5   Thumb Code    12  cmd.o(.text)
    list                                     0x0800abd1   Thumb Code   126  cmd.o(.text)
    list_prefix                              0x0800ac91   Thumb Code   434  cmd.o(.text)
    finsh_compiler_run                       0x0800c731   Thumb Code   106  finsh_compiler.o(.text)
    finsh_error_init                         0x0800c79d   Thumb Code     8  finsh_error.o(.text)
    finsh_error_set                          0x0800c7a5   Thumb Code    10  finsh_error.o(.text)
    finsh_errno                              0x0800c7af   Thumb Code     6  finsh_error.o(.text)
    finsh_error_string                       0x0800c7b5   Thumb Code    10  finsh_error.o(.text)
    finsh_heap_init                          0x0800c7c9   Thumb Code    36  finsh_heap.o(.text)
    finsh_heap_free                          0x0800c8ed   Thumb Code    34  finsh_heap.o(.text)
    finsh_heap_allocate                      0x0800c95d   Thumb Code   106  finsh_heap.o(.text)
    finsh_init                               0x0800c9d9   Thumb Code    30  finsh_init.o(.text)
    finsh_stack_bottom                       0x0800c9f7   Thumb Code     6  finsh_init.o(.text)
    finsh_flush                              0x0800c9fd   Thumb Code    22  finsh_init.o(.text)
    finsh_reset                              0x0800ca13   Thumb Code    24  finsh_init.o(.text)
    finsh_node_init                          0x0800ca31   Thumb Code    16  finsh_node.o(.text)
    finsh_node_allocate                      0x0800ca41   Thumb Code    56  finsh_node.o(.text)
    finsh_node_new_id                        0x0800ca79   Thumb Code   118  finsh_node.o(.text)
    finsh_node_new_char                      0x0800caef   Thumb Code    30  finsh_node.o(.text)
    finsh_node_new_int                       0x0800cb0d   Thumb Code    30  finsh_node.o(.text)
    finsh_node_new_long                      0x0800cb2b   Thumb Code    30  finsh_node.o(.text)
    finsh_node_new_string                    0x0800cb49   Thumb Code    74  finsh_node.o(.text)
    finsh_node_new_ptr                       0x0800cb93   Thumb Code    30  finsh_node.o(.text)
    OP_no_op                                 0x0800cbb5   Thumb Code     2  finsh_ops.o(.text)
    OP_add_byte                              0x0800cbb7   Thumb Code    42  finsh_ops.o(.text)
    OP_add_word                              0x0800cbe1   Thumb Code    44  finsh_ops.o(.text)
    OP_add_dword                             0x0800cc0d   Thumb Code    42  finsh_ops.o(.text)
    OP_sub_byte                              0x0800cc37   Thumb Code    42  finsh_ops.o(.text)
    OP_sub_word                              0x0800cc61   Thumb Code    44  finsh_ops.o(.text)
    OP_sub_dword                             0x0800cc8d   Thumb Code    42  finsh_ops.o(.text)
    OP_div_byte                              0x0800ccb7   Thumb Code    44  finsh_ops.o(.text)
    OP_div_word                              0x0800cce3   Thumb Code    46  finsh_ops.o(.text)
    OP_div_dword                             0x0800cd11   Thumb Code    44  finsh_ops.o(.text)
    OP_mod_byte                              0x0800cd3d   Thumb Code    48  finsh_ops.o(.text)
    OP_mod_word                              0x0800cd6d   Thumb Code    50  finsh_ops.o(.text)
    OP_mod_dword                             0x0800cd9f   Thumb Code    48  finsh_ops.o(.text)
    OP_mul_byte                              0x0800cdcf   Thumb Code    42  finsh_ops.o(.text)
    OP_mul_word                              0x0800cdf9   Thumb Code    44  finsh_ops.o(.text)
    OP_mul_dword                             0x0800ce25   Thumb Code    42  finsh_ops.o(.text)
    OP_and_byte                              0x0800ce4f   Thumb Code    42  finsh_ops.o(.text)
    OP_and_word                              0x0800ce79   Thumb Code    42  finsh_ops.o(.text)
    OP_and_dword                             0x0800cea3   Thumb Code    42  finsh_ops.o(.text)
    OP_or_byte                               0x0800cecd   Thumb Code    42  finsh_ops.o(.text)
    OP_or_word                               0x0800cef7   Thumb Code    42  finsh_ops.o(.text)
    OP_or_dword                              0x0800cf21   Thumb Code    42  finsh_ops.o(.text)
    OP_xor_byte                              0x0800cf4b   Thumb Code    42  finsh_ops.o(.text)
    OP_xor_word                              0x0800cf75   Thumb Code    48  finsh_ops.o(.text)
    OP_xor_dword                             0x0800cfa5   Thumb Code    42  finsh_ops.o(.text)
    OP_bw_byte                               0x0800cfcf   Thumb Code    20  finsh_ops.o(.text)
    OP_bw_word                               0x0800cfe3   Thumb Code    20  finsh_ops.o(.text)
    OP_bw_dword                              0x0800cff7   Thumb Code    20  finsh_ops.o(.text)
    OP_shl_byte                              0x0800d00b   Thumb Code    42  finsh_ops.o(.text)
    OP_shl_word                              0x0800d035   Thumb Code    44  finsh_ops.o(.text)
    OP_shl_dword                             0x0800d061   Thumb Code    42  finsh_ops.o(.text)
    OP_shr_byte                              0x0800d08b   Thumb Code    42  finsh_ops.o(.text)
    OP_shr_word                              0x0800d0b5   Thumb Code    44  finsh_ops.o(.text)
    OP_shr_dword                             0x0800d0e1   Thumb Code    42  finsh_ops.o(.text)
    OP_ld_byte                               0x0800d10b   Thumb Code    34  finsh_ops.o(.text)
    OP_ld_word                               0x0800d12d   Thumb Code    46  finsh_ops.o(.text)
    OP_ld_dword                              0x0800d15b   Thumb Code    64  finsh_ops.o(.text)
    OP_ld_value_byte                         0x0800d19b   Thumb Code    66  finsh_ops.o(.text)
    OP_ld_value_byte_stack                   0x0800d1dd   Thumb Code    20  finsh_ops.o(.text)
    OP_ld_value_word                         0x0800d1f1   Thumb Code    66  finsh_ops.o(.text)
    OP_ld_value_word_stack                   0x0800d233   Thumb Code    20  finsh_ops.o(.text)
    OP_ld_value_dword                        0x0800d247   Thumb Code    66  finsh_ops.o(.text)
    OP_ld_value_dword_stack                  0x0800d289   Thumb Code    20  finsh_ops.o(.text)
    OP_st_byte                               0x0800d29d   Thumb Code    30  finsh_ops.o(.text)
    OP_st_word                               0x0800d2bb   Thumb Code    30  finsh_ops.o(.text)
    OP_st_dword                              0x0800d2d9   Thumb Code    30  finsh_ops.o(.text)
    OP_pop                                   0x0800d2f7   Thumb Code    12  finsh_ops.o(.text)
    OP_call                                  0x0800d303   Thumb Code   774  finsh_ops.o(.text)
    finsh_parser_run                         0x0800de9d   Thumb Code   220  finsh_parser.o(.text)
    finsh_parser_init                        0x0800df79   Thumb Code    16  finsh_parser.o(.text)
    finsh_token_init                         0x0800df89   Thumb Code    20  finsh_token.o(.text)
    token_get_string                         0x0800e379   Thumb Code   120  finsh_token.o(.text)
    finsh_token_token                        0x0800e5b1   Thumb Code    24  finsh_token.o(.text)
    finsh_token_get_token                    0x0800e5c9   Thumb Code    20  finsh_token.o(.text)
    finsh_var_init                           0x0800e5e1   Thumb Code    14  finsh_var.o(.text)
    finsh_var_insert                         0x0800e5ef   Thumb Code   112  finsh_var.o(.text)
    finsh_var_delete                         0x0800e65f   Thumb Code    68  finsh_var.o(.text)
    finsh_var_lookup                         0x0800e6a3   Thumb Code    58  finsh_var.o(.text)
    finsh_sysvar_append                      0x0800e6dd   Thumb Code    62  finsh_var.o(.text)
    finsh_sysvar_lookup                      0x0800e71b   Thumb Code    78  finsh_var.o(.text)
    finsh_vm_run                             0x0800e779   Thumb Code    62  finsh_vm.o(.text)
    finsh_syscall_append                     0x0800e7b7   Thumb Code    54  finsh_vm.o(.text)
    finsh_syscall_lookup                     0x0800e7ed   Thumb Code    78  finsh_vm.o(.text)
    finsh_set_device                         0x0800e88b   Thumb Code   130  shell.o(.text)
    finsh_get_device                         0x0800e90d   Thumb Code    40  shell.o(.text)
    finsh_set_echo                           0x0800e935   Thumb Code    42  shell.o(.text)
    finsh_get_echo                           0x0800e95f   Thumb Code    44  shell.o(.text)
    finsh_run_line                           0x0800e9a7   Thumb Code   150  shell.o(.text)
    finsh_thread_entry                       0x0800eaf7   Thumb Code  1574  shell.o(.text)
    finsh_system_function_init               0x0800f11d   Thumb Code    10  shell.o(.text)
    finsh_system_var_init                    0x0800f127   Thumb Code    10  shell.o(.text)
    finsh_system_init                        0x0800f131   Thumb Code   118  shell.o(.text)
    dfs_init                                 0x0800f1fd   Thumb Code    46  dfs.o(.text)
    dfs_lock                                 0x0800f22b   Thumb Code    40  dfs.o(.text)
    dfs_unlock                               0x0800f253   Thumb Code    10  dfs.o(.text)
    fd_new                                   0x0800f25d   Thumb Code    62  dfs.o(.text)
    fd_get                                   0x0800f29b   Thumb Code    58  dfs.o(.text)
    fd_put                                   0x0800f2d5   Thumb Code    58  dfs.o(.text)
    dfs_normalize_path                       0x0800f30f   Thumb Code   368  dfs.o(.text)
    fd_is_open                               0x0800f47f   Thumb Code   148  dfs.o(.text)
    dfs_subdir                               0x0800f513   Thumb Code    56  dfs.o(.text)
    dfs_file_open                            0x0800f5ed   Thumb Code   220  dfs_file.o(.text)
    dfs_file_close                           0x0800f6c9   Thumb Code    56  dfs_file.o(.text)
    dfs_file_ioctl                           0x0800f701   Thumb Code    52  dfs_file.o(.text)
    dfs_file_read                            0x0800f735   Thumb Code    68  dfs_file.o(.text)
    dfs_file_getdents                        0x0800f779   Thumb Code    54  dfs_file.o(.text)
    dfs_file_unlink                          0x0800f7af   Thumb Code   148  dfs_file.o(.text)
    dfs_file_write                           0x0800f843   Thumb Code    48  dfs_file.o(.text)
    dfs_file_flush                           0x0800f873   Thumb Code    36  dfs_file.o(.text)
    dfs_file_lseek                           0x0800f897   Thumb Code    54  dfs_file.o(.text)
    dfs_file_stat                            0x0800f8cd   Thumb Code   188  dfs_file.o(.text)
    dfs_file_rename                          0x0800f989   Thumb Code   176  dfs_file.o(.text)
    ls                                       0x0800fa39   Thumb Code   212  dfs_file.o(.text)
    rm                                       0x0800fb0d   Thumb Code    24  dfs_file.o(.text)
    cat                                      0x0800fb25   Thumb Code    80  dfs_file.o(.text)
    copy                                     0x0800fd3b   Thumb Code   634  dfs_file.o(.text)
    dfs_register                             0x0800ffb5   Thumb Code    76  dfs_fs.o(.text)
    dfs_filesystem_lookup                    0x08010001   Thumb Code   128  dfs_fs.o(.text)
    dfs_filesystem_get_mounted_path          0x08010081   Thumb Code    52  dfs_fs.o(.text)
    dfs_filesystem_get_partition             0x080100b5   Thumb Code   230  dfs_fs.o(.text)
    dfs_mount                                0x0801019b   Thumb Code   400  dfs_fs.o(.text)
    dfs_unmount                              0x0801032b   Thumb Code   318  dfs_fs.o(.text)
    dfs_mkfs                                 0x08010469   Thumb Code   138  dfs_fs.o(.text)
    dfs_statfs                               0x080104f3   Thumb Code    40  dfs_fs.o(.text)
    mkfs                                     0x0801051b   Thumb Code    16  dfs_fs.o(.text)
    df                                       0x0801052b   Thumb Code    60  dfs_fs.o(.text)
    open                                     0x080105e9   Thumb Code    94  dfs_posix.o(.text)
    close                                    0x08010647   Thumb Code    68  dfs_posix.o(.text)
    read                                     0x0801068b   Thumb Code    80  dfs_posix.o(.text)
    write                                    0x080106db   Thumb Code    80  dfs_posix.o(.text)
    lseek                                    0x0801072b   Thumb Code   138  dfs_posix.o(.text)
    rename                                   0x080107b5   Thumb Code    36  dfs_posix.o(.text)
    unlink                                   0x080107d9   Thumb Code    32  dfs_posix.o(.text)
    stat                                     0x080107f9   Thumb Code    36  dfs_posix.o(.text)
    fstat                                    0x0801081d   Thumb Code    88  dfs_posix.o(.text)
    statfs                                   0x08010875   Thumb Code    36  dfs_posix.o(.text)
    mkdir                                    0x08010899   Thumb Code    92  dfs_posix.o(.text)
    rmdir                                    0x080108f5   Thumb Code    32  dfs_posix.o(.text)
    opendir                                  0x08010915   Thumb Code   130  dfs_posix.o(.text)
    readdir                                  0x08010997   Thumb Code   132  dfs_posix.o(.text)
    telldir                                  0x08010a1b   Thumb Code    50  dfs_posix.o(.text)
    seekdir                                  0x08010a4d   Thumb Code    58  dfs_posix.o(.text)
    rewinddir                                0x08010a87   Thumb Code    56  dfs_posix.o(.text)
    closedir                                 0x08010abf   Thumb Code    74  dfs_posix.o(.text)
    getcwd                                   0x08010b09   Thumb Code    16  dfs_posix.o(.text)
    lwip_htons                               0x08010b49   Thumb Code    12  def.o(.text)
    lwip_ntohs                               0x08010b55   Thumb Code    12  def.o(.text)
    lwip_htonl                               0x08010b61   Thumb Code    26  def.o(.text)
    lwip_ntohl                               0x08010b7b   Thumb Code    12  def.o(.text)
    dns_setserver                            0x08010b89   Thumb Code    28  dns.o(.text)
    dns_init                                 0x08010d87   Thumb Code    82  dns.o(.text)
    dns_getserver                            0x08010dd9   Thumb Code    20  dns.o(.text)
    dns_tmr                                  0x08011127   Thumb Code    18  dns.o(.text)
    dns_gethostbyname                        0x0801127d   Thumb Code    86  dns.o(.text)
    lwip_init                                0x08011305   Thumb Code    36  init.o(.text)
    netif_init                               0x08011329   Thumb Code     2  netif.o(.text)
    netif_set_gw                             0x0801132b   Thumb Code    16  netif.o(.text)
    netif_set_netmask                        0x0801133b   Thumb Code    16  netif.o(.text)
    netif_set_ipaddr                         0x0801134b   Thumb Code   122  netif.o(.text)
    netif_set_addr                           0x080113c5   Thumb Code    40  netif.o(.text)
    netif_add                                0x080113ed   Thumb Code   166  netif.o(.text)
    netif_set_default                        0x08011493   Thumb Code    10  netif.o(.text)
    netif_set_down                           0x0801149d   Thumb Code    42  netif.o(.text)
    netif_remove                             0x080114c7   Thumb Code   110  netif.o(.text)
    netif_find                               0x08011535   Thumb Code    72  netif.o(.text)
    netif_set_up                             0x0801157d   Thumb Code    70  netif.o(.text)
    netif_set_link_up                        0x080115c3   Thumb Code    70  netif.o(.text)
    netif_set_link_down                      0x08011609   Thumb Code    24  netif.o(.text)
    pbuf_free                                0x080116e9   Thumb Code   224  pbuf.o(.text)
    pbuf_alloc                               0x080117c9   Thumb Code  1110  pbuf.o(.text)
    pbuf_realloc                             0x08011c1f   Thumb Code   252  pbuf.o(.text)
    pbuf_header                              0x08011d1b   Thumb Code   214  pbuf.o(.text)
    pbuf_clen                                0x08011df1   Thumb Code    18  pbuf.o(.text)
    pbuf_ref                                 0x08011e03   Thumb Code    26  pbuf.o(.text)
    pbuf_cat                                 0x08011e1d   Thumb Code   136  pbuf.o(.text)
    pbuf_chain                               0x08011ea5   Thumb Code    26  pbuf.o(.text)
    pbuf_dechain                             0x08011ebf   Thumb Code   130  pbuf.o(.text)
    pbuf_copy                                0x08011f41   Thumb Code   820  pbuf.o(.text)
    pbuf_copy_partial                        0x08012275   Thumb Code   190  pbuf.o(.text)
    pbuf_take                                0x08012333   Thumb Code   210  pbuf.o(.text)
    pbuf_coalesce                            0x08012405   Thumb Code    84  pbuf.o(.text)
    pbuf_get_at                              0x08012459   Thumb Code    46  pbuf.o(.text)
    pbuf_memcmp                              0x08012487   Thumb Code    96  pbuf.o(.text)
    pbuf_memfind                             0x080124e7   Thumb Code    76  pbuf.o(.text)
    pbuf_strstr                              0x08012533   Thumb Code    60  pbuf.o(.text)
    raw_input                                0x08012659   Thumb Code   102  raw.o(.text)
    raw_bind                                 0x080126bf   Thumb Code    16  raw.o(.text)
    raw_connect                              0x080126cf   Thumb Code    16  raw.o(.text)
    raw_recv                                 0x080126df   Thumb Code     6  raw.o(.text)
    raw_sendto                               0x080126e5   Thumb Code   188  raw.o(.text)
    raw_send                                 0x080127a1   Thumb Code    18  raw.o(.text)
    raw_remove                               0x080127b3   Thumb Code    58  raw.o(.text)
    raw_new                                  0x080127ed   Thumb Code    48  raw.o(.text)
    tcp_init                                 0x0801286d   Thumb Code     2  tcp.o(.text)
    tcp_seg_free                             0x0801286f   Thumb Code    24  tcp.o(.text)
    tcp_segs_free                            0x08012887   Thumb Code    24  tcp.o(.text)
    tcp_pcb_purge                            0x0801289f   Thumb Code   104  tcp.o(.text)
    tcp_slowtmr                              0x08012907   Thumb Code  1470  tcp.o(.text)
    tcp_pcb_remove                           0x08012ec5   Thumb Code   222  tcp.o(.text)
    tcp_close                                0x08013165   Thumb Code    28  tcp.o(.text)
    tcp_update_rcv_ann_wnd                   0x08013181   Thumb Code   106  tcp.o(.text)
    tcp_recved                               0x080131eb   Thumb Code   406  tcp.o(.text)
    tcp_recv_null                            0x08013381   Thumb Code    46  tcp.o(.text)
    tcp_process_refused_data                 0x080133af   Thumb Code   150  tcp.o(.text)
    tcp_fasttmr                              0x08013445   Thumb Code   114  tcp.o(.text)
    tcp_tmr                                  0x080134b7   Thumb Code    30  tcp.o(.text)
    tcp_shutdown                             0x080134d5   Thumb Code    98  tcp.o(.text)
    tcp_abandon                              0x08013537   Thumb Code   174  tcp.o(.text)
    tcp_abort                                0x080135e5   Thumb Code    14  tcp.o(.text)
    tcp_bind                                 0x08013653   Thumb Code   168  tcp.o(.text)
    tcp_listen_with_backlog                  0x08013703   Thumb Code   220  tcp.o(.text)
    tcp_eff_send_mss                         0x080137df   Thumb Code    46  tcp.o(.text)
    tcp_next_iss                             0x0801380d   Thumb Code    20  tcp.o(.text)
    tcp_connect                              0x08013821   Thumb Code   586  tcp.o(.text)
    tcp_setprio                              0x08013a6b   Thumb Code     4  tcp.o(.text)
    tcp_seg_copy                             0x08013a6f   Thumb Code    40  tcp.o(.text)
    tcp_alloc                                0x08013b1d   Thumb Code   210  tcp.o(.text)
    tcp_new                                  0x08013bef   Thumb Code    10  tcp.o(.text)
    tcp_arg                                  0x08013bf9   Thumb Code     4  tcp.o(.text)
    tcp_recv                                 0x08013bfd   Thumb Code    44  tcp.o(.text)
    tcp_sent                                 0x08013c29   Thumb Code    42  tcp.o(.text)
    tcp_err                                  0x08013c53   Thumb Code    44  tcp.o(.text)
    tcp_accept                               0x08013c7f   Thumb Code     4  tcp.o(.text)
    tcp_poll                                 0x08013c83   Thumb Code    50  tcp.o(.text)
    tcp_debug_state_str                      0x08013cb5   Thumb Code    10  tcp.o(.text)
    tcp_input                                0x08015471   Thumb Code  1636  tcp_in.o(.text)
    tcp_enqueue_flags                        0x08015c4d   Thumb Code   430  tcp_out.o(.text)
    tcp_send_fin                             0x08015dfb   Thumb Code    74  tcp_out.o(.text)
    tcp_write                                0x080160a9   Thumb Code  1750  tcp_out.o(.text)
    tcp_send_empty_ack                       0x0801677f   Thumb Code   104  tcp_out.o(.text)
    tcp_output                               0x080168cd   Thumb Code   708  tcp_out.o(.text)
    tcp_rst                                  0x08016b91   Thumb Code   178  tcp_out.o(.text)
    tcp_rexmit_rto                           0x08016c43   Thumb Code    58  tcp_out.o(.text)
    tcp_rexmit                               0x08016c7d   Thumb Code    90  tcp_out.o(.text)
    tcp_rexmit_fast                          0x08016cd7   Thumb Code   120  tcp_out.o(.text)
    tcp_keepalive                            0x08016d4f   Thumb Code   102  tcp_out.o(.text)
    tcp_zero_window_probe                    0x08016db5   Thumb Code   202  tcp_out.o(.text)
    sys_timeout                              0x08016e81   Thumb Code   176  timers.o(.text)
    tcp_timer_needed                         0x08016f59   Thumb Code    38  timers.o(.text)
    sys_timeouts_init                        0x08016fcb   Thumb Code    38  timers.o(.text)
    sys_untimeout                            0x08016ff1   Thumb Code    88  timers.o(.text)
    sys_timeouts_mbox_fetch                  0x08017049   Thumb Code   130  timers.o(.text)
    udp_init                                 0x0801714d   Thumb Code     2  udp.o(.text)
    udp_input                                0x0801719f   Thumb Code   506  udp.o(.text)
    udp_bind                                 0x08017399   Thumb Code   172  udp.o(.text)
    udp_sendto_if                            0x08017445   Thumb Code   476  udp.o(.text)
    udp_sendto                               0x08017621   Thumb Code    72  udp.o(.text)
    udp_send                                 0x08017669   Thumb Code    20  udp.o(.text)
    udp_connect                              0x0801767d   Thumb Code    98  udp.o(.text)
    udp_disconnect                           0x080176df   Thumb Code    16  udp.o(.text)
    udp_recv                                 0x080176ef   Thumb Code     6  udp.o(.text)
    udp_remove                               0x080176f5   Thumb Code    58  udp.o(.text)
    udp_new                                  0x0801772f   Thumb Code    30  udp.o(.text)
    netconn_new_with_proto_and_callback      0x08017755   Thumb Code   198  api_lib.o(.text)
    netconn_delete                           0x0801781b   Thumb Code    36  api_lib.o(.text)
    netconn_getaddr                          0x0801783f   Thumb Code   162  api_lib.o(.text)
    netconn_bind                             0x080178e1   Thumb Code    98  api_lib.o(.text)
    netconn_connect                          0x08017943   Thumb Code    98  api_lib.o(.text)
    netconn_disconnect                       0x080179a5   Thumb Code    84  api_lib.o(.text)
    netconn_listen_with_backlog              0x080179f9   Thumb Code    86  api_lib.o(.text)
    netconn_accept                           0x08017a4f   Thumb Code   746  api_lib.o(.text)
    netconn_recv_tcp_pbuf                    0x08017ea9   Thumb Code    56  api_lib.o(.text)
    netconn_recv                             0x08017ee1   Thumb Code   264  api_lib.o(.text)
    netconn_recved                           0x08017fe9   Thumb Code    46  api_lib.o(.text)
    netconn_send                             0x08018017   Thumb Code    96  api_lib.o(.text)
    netconn_sendto                           0x08018077   Thumb Code    44  api_lib.o(.text)
    netconn_write_partly                     0x080180a3   Thumb Code   460  api_lib.o(.text)
    netconn_close                            0x080182cd   Thumb Code    14  api_lib.o(.text)
    netconn_shutdown                         0x080182db   Thumb Code    36  api_lib.o(.text)
    netconn_join_leave_group                 0x080182ff   Thumb Code   106  api_lib.o(.text)
    netconn_gethostbyname                    0x08018369   Thumb Code   142  api_lib.o(.text)
    netconn_free                             0x08018e71   Thumb Code   432  api_msg.o(.text)
    netconn_alloc                            0x08019021   Thumb Code   174  api_msg.o(.text)
    do_newconn                               0x0801922f   Thumb Code    32  api_msg.o(.text)
    do_delconn                               0x08019313   Thumb Code   590  api_msg.o(.text)
    do_bind                                  0x08019561   Thumb Code   116  api_msg.o(.text)
    do_connect                               0x080196a5   Thumb Code   230  api_msg.o(.text)
    do_disconnect                            0x0801978b   Thumb Code    46  api_msg.o(.text)
    do_listen                                0x080197b9   Thumb Code   198  api_msg.o(.text)
    do_send                                  0x0801987f   Thumb Code   166  api_msg.o(.text)
    do_recv                                  0x08019925   Thumb Code    72  api_msg.o(.text)
    do_write                                 0x0801996d   Thumb Code   322  api_msg.o(.text)
    do_getaddr                               0x08019aaf   Thumb Code   200  api_msg.o(.text)
    do_close                                 0x08019b77   Thumb Code   182  api_msg.o(.text)
    do_join_leave_group                      0x08019c2d   Thumb Code    92  api_msg.o(.text)
    do_gethostbyname                         0x08019cd7   Thumb Code    40  api_msg.o(.text)
    netbuf_new                               0x08019d45   Thumb Code    32  netbuf.o(.text)
    netbuf_delete                            0x08019d65   Thumb Code    30  netbuf.o(.text)
    netbuf_alloc                             0x08019d83   Thumb Code   104  netbuf.o(.text)
    netbuf_free                              0x08019deb   Thumb Code    50  netbuf.o(.text)
    netbuf_ref                               0x08019e1d   Thumb Code    92  netbuf.o(.text)
    netbuf_chain                             0x08019e79   Thumb Code    80  netbuf.o(.text)
    netbuf_data                              0x08019ec9   Thumb Code   124  netbuf.o(.text)
    netbuf_next                              0x08019f45   Thumb Code    66  netbuf.o(.text)
    netbuf_first                             0x08019f87   Thumb Code    38  netbuf.o(.text)
    do_netifapi_netif_add                    0x0801a0d1   Thumb Code    44  netifapi.o(.text)
    do_netifapi_netif_set_addr               0x0801a0fd   Thumb Code    26  netifapi.o(.text)
    do_netifapi_netif_common                 0x0801a117   Thumb Code    36  netifapi.o(.text)
    netifapi_netif_add                       0x0801a13b   Thumb Code    64  netifapi.o(.text)
    netifapi_netif_set_addr                  0x0801a17b   Thumb Code    40  netifapi.o(.text)
    netifapi_netif_common                    0x0801a1a3   Thumb Code    36  netifapi.o(.text)
    lwip_socket_init                         0x0801a1c9   Thumb Code     2  sockets.o(.text)
    lwip_accept                              0x0801a48d   Thumb Code   662  sockets.o(.text)
    lwip_bind                                0x0801a723   Thumb Code   208  sockets.o(.text)
    lwip_close                               0x0801a7f3   Thumb Code   102  sockets.o(.text)
    lwip_connect                             0x0801a859   Thumb Code   228  sockets.o(.text)
    lwip_listen                              0x0801a93d   Thumb Code   162  sockets.o(.text)
    lwip_recvfrom                            0x0801a9df   Thumb Code   852  sockets.o(.text)
    lwip_read                                0x0801ad33   Thumb Code    26  sockets.o(.text)
    lwip_recv                                0x0801ad4d   Thumb Code    34  sockets.o(.text)
    lwip_sendto                              0x0801ad6f   Thumb Code   292  sockets.o(.text)
    lwip_send                                0x0801ae93   Thumb Code   164  sockets.o(.text)
    lwip_socket                              0x0801af37   Thumb Code   328  sockets.o(.text)
    lwip_write                               0x0801b07f   Thumb Code    22  sockets.o(.text)
    lwip_select                              0x0801b211   Thumb Code   950  sockets.o(.text)
    lwip_shutdown                            0x0801b5c7   Thumb Code   194  sockets.o(.text)
    lwip_getpeername                         0x0801b713   Thumb Code    22  sockets.o(.text)
    lwip_getsockname                         0x0801b729   Thumb Code    22  sockets.o(.text)
    lwip_getsockopt                          0x0801ba07   Thumb Code   436  sockets.o(.text)
    lwip_setsockopt                          0x0801be23   Thumb Code   462  sockets.o(.text)
    lwip_ioctl                               0x0801bff1   Thumb Code   134  sockets.o(.text)
    lwip_fcntl                               0x0801c077   Thumb Code   126  sockets.o(.text)
    tcpip_input                              0x0801c1fd   Thumb Code    72  tcpip.o(.text)
    tcpip_callback_with_block                0x0801c245   Thumb Code    90  tcpip.o(.text)
    tcpip_timeout                            0x0801c29f   Thumb Code    66  tcpip.o(.text)
    tcpip_untimeout                          0x0801c2e1   Thumb Code    58  tcpip.o(.text)
    tcpip_apimsg                             0x0801c31b   Thumb Code    60  tcpip.o(.text)
    tcpip_netifapi                           0x0801c357   Thumb Code    76  tcpip.o(.text)
    tcpip_callbackmsg_new                    0x0801c3a3   Thumb Code    34  tcpip.o(.text)
    tcpip_callbackmsg_delete                 0x0801c3c5   Thumb Code    12  tcpip.o(.text)
    tcpip_trycallback                        0x0801c3d1   Thumb Code    28  tcpip.o(.text)
    tcpip_init                               0x0801c3ed   Thumb Code    72  tcpip.o(.text)
    pbuf_free_callback                       0x0801c443   Thumb Code    16  tcpip.o(.text)
    mem_free_callback                        0x0801c453   Thumb Code    16  tcpip.o(.text)
    icmp_input                               0x0801c501   Thumb Code   530  icmp.o(.text)
    icmp_dest_unreach                        0x0801c7b7   Thumb Code    18  icmp.o(.text)
    igmp_init                                0x0801c909   Thumb Code    18  igmp.o(.text)
    igmp_dump_group_list                     0x0801c91b   Thumb Code    30  igmp.o(.text)
    igmp_lookfor_group                       0x0801c939   Thumb Code    40  igmp.o(.text)
    igmp_start                               0x0801c9b7   Thumb Code    66  igmp.o(.text)
    igmp_stop                                0x0801c9f9   Thumb Code    88  igmp.o(.text)
    igmp_report_groups                       0x0801ca99   Thumb Code    36  igmp.o(.text)
    igmp_input                               0x0801caff   Thumb Code   312  igmp.o(.text)
    igmp_joingroup                           0x0801cd89   Thumb Code   240  igmp.o(.text)
    igmp_leavegroup                          0x0801ce79   Thumb Code   244  igmp.o(.text)
    igmp_tmr                                 0x0801cf8d   Thumb Code    38  igmp.o(.text)
    inet_chksum_pseudo                       0x0801d0fb   Thumb Code   172  inet_chksum.o(.text)
    inet_chksum_pseudo_partial               0x0801d1a7   Thumb Code   220  inet_chksum.o(.text)
    inet_chksum                              0x0801d283   Thumb Code    20  inet_chksum.o(.text)
    inet_chksum_pbuf                         0x0801d297   Thumb Code    86  inet_chksum.o(.text)
    ip_route                                 0x0801d31d   Thumb Code    80  ip.o(.text)
    ip_input                                 0x0801d36d   Thumb Code   504  ip.o(.text)
    ip_output_if_opt                         0x0801d565   Thumb Code   408  ip.o(.text)
    ip_output_if                             0x0801d6fd   Thumb Code   170  ip.o(.text)
    ip_output                                0x0801d7a7   Thumb Code    90  ip.o(.text)
    ip4_addr_isbroadcast                     0x0801d801   Thumb Code    78  ip_addr.o(.text)
    ip4_addr_netmask_valid                   0x0801d84f   Thumb Code    52  ip_addr.o(.text)
    ipaddr_aton                              0x0801d883   Thumb Code   366  ip_addr.o(.text)
    ipaddr_addr                              0x0801d9f1   Thumb Code    24  ip_addr.o(.text)
    ipaddr_ntoa_r                            0x0801da09   Thumb Code   168  ip_addr.o(.text)
    ipaddr_ntoa                              0x0801dab1   Thumb Code    16  ip_addr.o(.text)
    sys_arch_assert                          0x0801db1b   Thumb Code    48  sys_arch.o(.text)
    lwip_system_init                         0x0801dbdf   Thumb Code   146  sys_arch.o(.text)
    sys_init                                 0x0801dc71   Thumb Code     2  sys_arch.o(.text)
    lwip_sys_init                            0x0801dc73   Thumb Code     8  sys_arch.o(.text)
    sys_sem_new                              0x0801dc7b   Thumb Code   116  sys_arch.o(.text)
    sys_sem_free                             0x0801dcef   Thumb Code    64  sys_arch.o(.text)
    sys_sem_signal                           0x0801dd2f   Thumb Code    12  sys_arch.o(.text)
    sys_arch_sem_wait                        0x0801dd3b   Thumb Code   138  sys_arch.o(.text)
    sys_sem_valid                            0x0801ddc5   Thumb Code     6  sys_arch.o(.text)
    sys_sem_set_invalid                      0x0801ddcb   Thumb Code     6  sys_arch.o(.text)
    sys_mutex_new                            0x0801ddd1   Thumb Code   110  sys_arch.o(.text)
    sys_mutex_lock                           0x0801de3f   Thumb Code    70  sys_arch.o(.text)
    sys_mutex_unlock                         0x0801de85   Thumb Code    12  sys_arch.o(.text)
    sys_mutex_free                           0x0801de91   Thumb Code    66  sys_arch.o(.text)
    sys_mutex_valid                          0x0801ded3   Thumb Code     6  sys_arch.o(.text)
    sys_mutex_set_invalid                    0x0801ded9   Thumb Code     6  sys_arch.o(.text)
    sys_mbox_new                             0x0801dedf   Thumb Code   428  sys_arch.o(.text)
    sys_mbox_free                            0x0801e08b   Thumb Code    72  sys_arch.o(.text)
    sys_mbox_post                            0x0801e0d3   Thumb Code    84  sys_arch.o(.text)
    sys_mbox_trypost                         0x0801e127   Thumb Code    26  sys_arch.o(.text)
    sys_arch_mbox_fetch                      0x0801e141   Thumb Code   174  sys_arch.o(.text)
    sys_arch_mbox_tryfetch                   0x0801e1ef   Thumb Code    34  sys_arch.o(.text)
    sys_mbox_valid                           0x0801e211   Thumb Code     6  sys_arch.o(.text)
    sys_mbox_set_invalid                     0x0801e217   Thumb Code     6  sys_arch.o(.text)
    sys_thread_new                           0x0801e21d   Thumb Code   148  sys_arch.o(.text)
    sys_arch_protect                         0x0801e2b1   Thumb Code    12  sys_arch.o(.text)
    sys_arch_unprotect                       0x0801e2bd   Thumb Code    12  sys_arch.o(.text)
    sys_jiffies                              0x0801e2c9   Thumb Code     8  sys_arch.o(.text)
    sys_now                                  0x0801e2d1   Thumb Code    14  sys_arch.o(.text)
    etharp_tmr                               0x0801e405   Thumb Code   146  etharp.o(.text)
    etharp_cleanup_netif                     0x0801e8fb   Thumb Code    52  etharp.o(.text)
    etharp_find_addr                         0x0801e92f   Thumb Code   108  etharp.o(.text)
    etharp_request                           0x0801ec0b   Thumb Code    40  etharp.o(.text)
    etharp_query                             0x0801ed6d   Thumb Code   536  etharp.o(.text)
    etharp_output                            0x0801ef85   Thumb Code   394  etharp.o(.text)
    ethernet_input                           0x0801f10f   Thumb Code   308  etharp.o(.text)
    eth_device_init_with_flag                0x0801f2f1   Thumb Code   178  ethernetif.o(.text)
    eth_device_init                          0x0801f3a3   Thumb Code    24  ethernetif.o(.text)
    eth_device_ready                         0x0801f3bb   Thumb Code    22  ethernetif.o(.text)
    eth_device_linkchange                    0x0801f3d1   Thumb Code    80  ethernetif.o(.text)
    eth_system_device_init                   0x0801f531   Thumb Code   632  ethernetif.o(.text)
    set_if                                   0x0801f7a9   Thumb Code   140  ethernetif.o(.text)
    set_dns                                  0x0801f835   Thumb Code    26  ethernetif.o(.text)
    list_if                                  0x0801f84f   Thumb Code   318  ethernetif.o(.text)
    list_tcps                                0x0801f98d   Thumb Code   246  ethernetif.o(.text)
    rand                                     0x0801fc4d   Thumb Code    20  rand.o(.text)
    srand                                    0x0801fc61   Thumb Code     6  rand.o(.text)
    __aeabi_memcpy                           0x0801fc71   Thumb Code    36  memcpya.o(.text)
    __aeabi_memcpy4                          0x0801fc71   Thumb Code     0  memcpya.o(.text)
    __aeabi_memcpy8                          0x0801fc71   Thumb Code     0  memcpya.o(.text)
    __aeabi_memset                           0x0801fc95   Thumb Code    14  memseta.o(.text)
    __aeabi_memset4                          0x0801fc95   Thumb Code     0  memseta.o(.text)
    __aeabi_memset8                          0x0801fc95   Thumb Code     0  memseta.o(.text)
    __aeabi_memclr                           0x0801fca3   Thumb Code     4  memseta.o(.text)
    __aeabi_memclr4                          0x0801fca3   Thumb Code     0  memseta.o(.text)
    __aeabi_memclr8                          0x0801fca3   Thumb Code     0  memseta.o(.text)
    _memset$wrapper                          0x0801fca7   Thumb Code    20  memseta.o(.text)
    strncpy                                  0x0801fcbb   Thumb Code    24  strncpy.o(.text)
    strlen                                   0x0801fcd3   Thumb Code    16  strlen.o(.text)
    strcmp                                   0x0801fce3   Thumb Code    28  strcmp.o(.text)
    memcmp                                   0x0801fcff   Thumb Code    26  memcmp.o(.text)
    strcpy                                   0x0801fd19   Thumb Code    18  strcpy.o(.text)
    strncmp                                  0x0801fd2b   Thumb Code    30  strncmp.o(.text)
    strrchr                                  0x0801fd49   Thumb Code    32  strrchr.o(.text)
    atoi                                     0x0801fd69   Thumb Code    26  atoi.o(.text)
    strtol                                   0x0801fd83   Thumb Code   112  strtol.o(.text)
    __scatterload                            0x0801fdf5   Thumb Code    28  init.o(.text)
    __scatterload_rt2                        0x0801fdf5   Thumb Code     0  init.o(.text)
    __rt_ctype_table                         0x0801fe19   Thumb Code     4  ctype_o.o(.text)
    _strtoul                                 0x0801fe21   Thumb Code   156  _strtoul.o(.text)
    _chval                                   0x0801febd   Thumb Code    32  _chval.o(.text)
    __decompress                             0x0801fedd   Thumb Code     0  __dczerorl2.o(.text)
    __decompress1                            0x0801fedd   Thumb Code    92  __dczerorl2.o(.text)
    __aeabi_errno_addr                       0x0801ff39   Thumb Code     4  errno.o(i.__aeabi_errno_addr)
    __rt_errno_addr                          0x0801ff39   Thumb Code     0  errno.o(i.__aeabi_errno_addr)
    __scatterload_copy                       0x0801ff41   Thumb Code    14  handlers.o(i.__scatterload_copy)
    __scatterload_null                       0x0801ff4f   Thumb Code     2  handlers.o(i.__scatterload_null)
    __scatterload_zeroinit                   0x0801ff51   Thumb Code    14  handlers.o(i.__scatterload_zeroinit)
    __fsym_tcpserv_name                      0x0801ff94   Data           8  tcpserver.o(.constdata)
    __fsym_tcpserv_desc                      0x0801ff9c   Data          19  tcpserver.o(.constdata)
    __lowest_bit_bitmap                      0x08020244   Data         256  kservice.o(.constdata)
    __fsym_list_mem_name                     0x08020368   Data           9  mem.o(.constdata)
    __fsym_list_mem_desc                     0x08020371   Data          30  mem.o(.constdata)
    __fsym_led_name                          0x0802067a   Data           4  led.o(.constdata)
    __fsym_led_desc                          0x0802067e   Data          32  led.o(.constdata)
    __fsym_enc28j60_name                     0x0802086c   Data           9  enc28j60.o(.constdata)
    __fsym_enc28j60_desc                     0x08020875   Data          24  enc28j60.o(.constdata)
    __fsym_hello_name                        0x0802096c   Data           6  cmd.o(.constdata)
    __fsym_hello_desc                        0x08020972   Data          16  cmd.o(.constdata)
    __fsym_version_name                      0x08020982   Data           8  cmd.o(.constdata)
    __fsym_version_desc                      0x0802098a   Data          35  cmd.o(.constdata)
    __fsym_list_thread_name                  0x080209ad   Data          12  cmd.o(.constdata)
    __fsym_list_thread_desc                  0x080209b9   Data          12  cmd.o(.constdata)
    __fsym_list_sem_name                     0x080209c5   Data           9  cmd.o(.constdata)
    __fsym_list_sem_desc                     0x080209ce   Data          25  cmd.o(.constdata)
    __fsym_list_event_name                   0x080209e7   Data          11  cmd.o(.constdata)
    __fsym_list_event_desc                   0x080209f2   Data          21  cmd.o(.constdata)
    __fsym_list_mutex_name                   0x08020a07   Data          11  cmd.o(.constdata)
    __fsym_list_mutex_desc                   0x08020a12   Data          21  cmd.o(.constdata)
    __fsym_list_mailbox_name                 0x08020a27   Data          13  cmd.o(.constdata)
    __fsym_list_mailbox_desc                 0x08020a34   Data          24  cmd.o(.constdata)
    __fsym_list_msgqueue_name                0x08020a4c   Data          14  cmd.o(.constdata)
    __fsym_list_msgqueue_desc                0x08020a5a   Data          29  cmd.o(.constdata)
    __fsym_list_mempool_name                 0x08020a77   Data          13  cmd.o(.constdata)
    __fsym_list_mempool_desc                 0x08020a84   Data          27  cmd.o(.constdata)
    __fsym_list_timer_name                   0x08020a9f   Data          11  cmd.o(.constdata)
    __fsym_list_timer_desc                   0x08020aaa   Data          21  cmd.o(.constdata)
    __fsym_list_device_name                  0x08020abf   Data          12  cmd.o(.constdata)
    __fsym_list_device_desc                  0x08020acb   Data          22  cmd.o(.constdata)
    __fsym_list_name                         0x08020ae1   Data           5  cmd.o(.constdata)
    __fsym_list_desc                         0x08020ae6   Data          26  cmd.o(.constdata)
    __vsym_dummy_name                        0x08020b00   Data           6  cmd.o(.constdata)
    __vsym_dummy_desc                        0x08020b06   Data          25  cmd.o(.constdata)
    op_table                                 0x08020c00   Data         196  finsh_ops.o(.constdata)
    __fsym_ls_name                           0x08020d74   Data           3  dfs_file.o(.constdata)
    __fsym_ls_desc                           0x08020d77   Data          24  dfs_file.o(.constdata)
    __fsym_rm_name                           0x08020d8f   Data           3  dfs_file.o(.constdata)
    __fsym_rm_desc                           0x08020d92   Data          28  dfs_file.o(.constdata)
    __fsym_cat_name                          0x08020dae   Data           4  dfs_file.o(.constdata)
    __fsym_cat_desc                          0x08020db2   Data          11  dfs_file.o(.constdata)
    __fsym_copy_name                         0x08020dbd   Data           5  dfs_file.o(.constdata)
    __fsym_copy_desc                         0x08020dc2   Data          17  dfs_file.o(.constdata)
    __fsym_mkfs_name                         0x08020dd3   Data           5  dfs_fs.o(.constdata)
    __fsym_mkfs_desc                         0x08020dd8   Data          19  dfs_fs.o(.constdata)
    __fsym_df_name                           0x08020deb   Data           3  dfs_fs.o(.constdata)
    __fsym_df_desc                           0x08020dee   Data          14  dfs_fs.o(.constdata)
    __fsym_mkdir_name                        0x08020e2f   Data           6  dfs_posix.o(.constdata)
    __fsym_mkdir_desc                        0x08020e35   Data          19  dfs_posix.o(.constdata)
    memp_sizes                               0x08020e48   Data          30  memp.o(.constdata)
    tcp_state_str                            0x08020e68   Data          44  tcp.o(.constdata)
    tcp_backoff                              0x08020e94   Data          13  tcp.o(.constdata)
    tcp_persist_backoff                      0x08020ea1   Data           7  tcp.o(.constdata)
    tcp_pcb_lists                            0x08020ea8   Data          16  tcp.o(.constdata)
    ip_addr_any                              0x08020f50   Data           4  ip_addr.o(.constdata)
    ip_addr_broadcast                        0x08020f54   Data           4  ip_addr.o(.constdata)
    ethbroadcast                             0x0802100c   Data           6  etharp.o(.constdata)
    ethzero                                  0x08021012   Data           6  etharp.o(.constdata)
    __fsym_set_if_name                       0x0802105c   Data           7  ethernetif.o(.constdata)
    __fsym_set_if_desc                       0x08021063   Data          30  ethernetif.o(.constdata)
    __fsym_set_dns_name                      0x08021081   Data           8  ethernetif.o(.constdata)
    __fsym_set_dns_desc                      0x08021089   Data          23  ethernetif.o(.constdata)
    __fsym_list_if_name                      0x080210a0   Data           8  ethernetif.o(.constdata)
    __fsym_list_if_desc                      0x080210a8   Data          35  ethernetif.o(.constdata)
    __fsym_list_tcps_name                    0x080210cb   Data          10  ethernetif.o(.constdata)
    __fsym_list_tcps_desc                    0x080210d5   Data          28  ethernetif.o(.constdata)
    __ctype_table                            0x08021148   Data         129  ctype_o.o(.constdata)
    __rt_init_rti_start                      0x08021428   Data           4  components.o(.rti_fn.0)
    __rt_init_rti_board_end                  0x0802142c   Data           4  components.o(.rti_fn.1.post)
    __rt_init_rti_end                        0x08021430   Data           4  components.o(.rti_fn.7)
    FSymTab$$Base                            0x08021434   Number         0  tcpserver.o(FSymTab)
    __fsym_tcpserv                           0x08021434   Data          12  tcpserver.o(FSymTab)
    __fsym_list_mem                          0x08021440   Data          12  mem.o(FSymTab)
    __fsym_led                               0x0802144c   Data          12  led.o(FSymTab)
    __fsym_enc28j60                          0x08021458   Data          12  enc28j60.o(FSymTab)
    __fsym_hello                             0x08021464   Data          12  cmd.o(FSymTab)
    __fsym_version                           0x08021470   Data          12  cmd.o(FSymTab)
    __fsym_list_thread                       0x0802147c   Data          12  cmd.o(FSymTab)
    __fsym_list_sem                          0x08021488   Data          12  cmd.o(FSymTab)
    __fsym_list_event                        0x08021494   Data          12  cmd.o(FSymTab)
    __fsym_list_mutex                        0x080214a0   Data          12  cmd.o(FSymTab)
    __fsym_list_mailbox                      0x080214ac   Data          12  cmd.o(FSymTab)
    __fsym_list_msgqueue                     0x080214b8   Data          12  cmd.o(FSymTab)
    __fsym_list_mempool                      0x080214c4   Data          12  cmd.o(FSymTab)
    __fsym_list_timer                        0x080214d0   Data          12  cmd.o(FSymTab)
    __fsym_list_device                       0x080214dc   Data          12  cmd.o(FSymTab)
    __fsym_list                              0x080214e8   Data          12  cmd.o(FSymTab)
    __fsym_ls                                0x080214f4   Data          12  dfs_file.o(FSymTab)
    __fsym_rm                                0x08021500   Data          12  dfs_file.o(FSymTab)
    __fsym_cat                               0x0802150c   Data          12  dfs_file.o(FSymTab)
    __fsym_copy                              0x08021518   Data          12  dfs_file.o(FSymTab)
    __fsym_mkfs                              0x08021524   Data          12  dfs_fs.o(FSymTab)
    __fsym_df                                0x08021530   Data          12  dfs_fs.o(FSymTab)
    __fsym_mkdir                             0x0802153c   Data          12  dfs_posix.o(FSymTab)
    __fsym_set_if                            0x08021548   Data          12  ethernetif.o(FSymTab)
    __fsym_set_dns                           0x08021554   Data          12  ethernetif.o(FSymTab)
    __fsym_list_if                           0x08021560   Data          12  ethernetif.o(FSymTab)
    __fsym_list_tcps                         0x0802156c   Data          12  ethernetif.o(FSymTab)
    FSymTab$$Limit                           0x08021578   Number         0  ethernetif.o(FSymTab)
    Region$$Table$$Base                      0x08021578   Number         0  anon$$obj.o(Region$$Table)
    Region$$Table$$Limit                     0x08021598   Number         0  anon$$obj.o(Region$$Table)
    VSymTab$$Base                            0x08021598   Number         0  cmd.o(VSymTab)
    __vsym_dummy                             0x08021598   Data          16  cmd.o(VSymTab)
    VSymTab$$Limit                           0x080215a8   Number         0  cmd.o(VSymTab)
    rt_interrupt_from_thread                 0x20000004   Data           4  cpuport.o(.data)
    rt_interrupt_to_thread                   0x20000008   Data           4  cpuport.o(.data)
    rt_thread_switch_interrupt_flag          0x2000000c   Data           4  cpuport.o(.data)
    SystemCoreClock                          0x2000003c   Data           4  system_stm32f10x.o(.data)
    AHBPrescTable                            0x20000040   Data          16  system_stm32f10x.o(.data)
    rt_interrupt_nest                        0x20000058   Data           1  irq.o(.data)
    rt_object_container                      0x20000084   Data         144  object.o(.data)
    rt_object_trytake_hook                   0x2000011c   Data           4  object.o(.data)
    rt_object_take_hook                      0x20000120   Data           4  object.o(.data)
    rt_object_put_hook                       0x20000124   Data           4  object.o(.data)
    rt_current_thread                        0x2000012c   Data           4  scheduler.o(.data)
    rt_current_priority                      0x20000130   Data           1  scheduler.o(.data)
    rt_thread_ready_priority_group           0x20000134   Data           4  scheduler.o(.data)
    rt_thread_defunct                        0x20000138   Data           8  scheduler.o(.data)
    uart1                                    0x2000015c   Data           8  usart.o(.data)
    uart2                                    0x20000164   Data           8  usart.o(.data)
    uart3                                    0x2000016c   Data           8  usart.o(.data)
    finsh_compile_sp                         0x200001b4   Data           4  finsh_compiler.o(.data)
    finsh_compile_pc                         0x200001b8   Data           4  finsh_compiler.o(.data)
    global_errno                             0x200001f8   Data           1  finsh_error.o(.data)
    global_sysvar_list                       0x20000204   Data           4  finsh_var.o(.data)
    global_syscall_list                      0x20000208   Data           4  finsh_vm.o(.data)
    finsh_sp                                 0x2000020c   Data           4  finsh_vm.o(.data)
    finsh_pc                                 0x20000210   Data           4  finsh_vm.o(.data)
    shell                                    0x20000214   Data           4  shell.o(.data)
    _syscall_table_begin                     0x20000218   Data           4  symbol.o(.data)
    _syscall_table_end                       0x2000021c   Data           4  symbol.o(.data)
    _sysvar_table_begin                      0x20000220   Data           4  symbol.o(.data)
    _sysvar_table_end                        0x20000224   Data           4  symbol.o(.data)
    netif_list                               0x2000023c   Data           4  netif.o(.data)
    netif_default                            0x20000240   Data           4  netif.o(.data)
    pbuf_free_ooseq_pending                  0x20000245   Data           1  pbuf.o(.data)
    tcp_ticks                                0x20000254   Data           4  tcp.o(.data)
    tcp_bound_pcbs                           0x20000258   Data           4  tcp.o(.data)
    tcp_listen_pcbs                          0x2000025c   Data           4  tcp.o(.data)
    tcp_active_pcbs                          0x20000260   Data           4  tcp.o(.data)
    tcp_tw_pcbs                              0x20000264   Data           4  tcp.o(.data)
    tcp_tmp_pcb                              0x20000268   Data           4  tcp.o(.data)
    tcp_active_pcbs_changed                  0x2000026c   Data           1  tcp.o(.data)
    tcp_input_pcb                            0x2000028c   Data           4  tcp_in.o(.data)
    udp_pcbs                                 0x2000029c   Data           4  udp.o(.data)
    current_netif                            0x200002c0   Data           4  ip.o(.data)
    current_header                           0x200002c4   Data           4  ip.o(.data)
    current_iphdr_src                        0x200002c8   Data           4  ip.o(.data)
    current_iphdr_dest                       0x200002cc   Data           4  ip.o(.data)
    rt_thread_priority_table                 0x20000c04   Data         256  scheduler.o(.bss)
    uart1_int_rx                             0x20000d04   Data          68  usart.o(.bss)
    serial1                                  0x20000d48   Data         124  usart.o(.bss)
    uart2_int_rx                             0x20000dc4   Data          68  usart.o(.bss)
    serial2                                  0x20000e08   Data         124  usart.o(.bss)
    uart3_int_rx                             0x20000e84   Data          68  usart.o(.bss)
    serial3                                  0x20000ec8   Data         124  usart.o(.bss)
    finsh_heap                               0x200012b8   Data         128  finsh_heap.o(.bss)
    global_node_table                        0x20001338   Data         320  finsh_node.o(.bss)
    global_variable                          0x20001478   Data         192  finsh_var.o(.bss)
    finsh_vm_stack                           0x20001538   Data         256  finsh_vm.o(.bss)
    text_segment                             0x20001638   Data         128  finsh_vm.o(.bss)
    filesystem_operation_table               0x20001f38   Data          16  dfs.o(.bss)
    filesystem_table                         0x20001f48   Data          32  dfs.o(.bss)
    fd_table                                 0x20001f8c   Data         128  dfs.o(.bss)
    Image$$RW_IRAM1$$ZI$$Limit               0x20003290   Number         0  startup_stm32f10x_hd.o(STACK)
    __initial_sp                             0x20003290   Data           0  startup_stm32f10x_hd.o(STACK)



==============================================================================

Memory Map of the image

  Image Entry point : 0x08000131

  Load Region LR_IROM1 (Base: 0x08000000, Size: 0x0002188c, Max: 0x00080000, ABSOLUTE, COMPRESSED[0x0002166c])

    Execution Region ER_IROM1 (Base: 0x08000000, Size: 0x000215a8, Max: 0x00080000, ABSOLUTE)

    Base Addr    Size         Type   Attr      Idx    E Section Name        Object

    0x08000000   0x00000130   Data   RO            3    RESET               startup_stm32f10x_hd.o
    0x08000130   0x00000000   Code   RO         2562  * .ARM.Collect$$$$00000000  mc_w.l(entry.o)(mc_w.l)
    0x08000130   0x00000004   Code   RO         2593    .ARM.Collect$$$$00000001  mc_w.l(entry2.o)(mc_w.l)
    0x08000134   0x00000004   Code   RO         2596    .ARM.Collect$$$$00000004  mc_w.l(entry5.o)(mc_w.l)
    0x08000138   0x00000008   Code   RO         2597    .ARM.Collect$$$$00000007  mc_w.l(entry7.o)(mc_w.l)
    0x08000140   0x00000004   Code   RO         2594    .ARM.Collect$$$$00002712  mc_w.l(entry2.o)(mc_w.l)
    0x08000144   0x00000024   Code   RO            4    .text               startup_stm32f10x_hd.o
    0x08000168   0x000000f0   Code   RO           10    .text               context_rvds.o
    0x08000258   0x000005f4   Code   RO           14    .text               cpuport.o
    0x0800084c   0x00000012   Code   RO           86    .text               stm32f10x_it.o
    0x0800085e   0x00000002   PAD
    0x08000860   0x000000c4   Code   RO          187    .text               startup.o
    0x08000924   0x0000046c   Code   RO          206    .text               application.o
    0x08000d90   0x000001f4   Code   RO          330    .text               tcpserver.o
    0x08000f84   0x000000f8   Code   RO          359    .text               misc.o
    0x0800107c   0x0000013c   Code   RO          467    .text               stm32f10x_exti.o
    0x080011b8   0x00000358   Code   RO          503    .text               stm32f10x_gpio.o
    0x08001510   0x000003a4   Code   RO          551    .text               stm32f10x_rcc.o
    0x080018b4   0x00000310   Code   RO          589    .text               stm32f10x_spi.o
    0x08001bc4   0x0000040c   Code   RO          613    .text               stm32f10x_usart.o
    0x08001fd0   0x000001c8   Code   RO          647    .text               system_stm32f10x.o
    0x08002198   0x00000064   Code   RO          665    .text               clock.o
    0x080021fc   0x00000414   Code   RO          679    .text               device.o
    0x08002610   0x00000164   Code   RO          693    .text               idle.o
    0x08002774   0x00001a00   Code   RO          713    .text               ipc.o
    0x08004174   0x00000048   Code   RO          730    .text               irq.o
    0x080041bc   0x00000990   Code   RO          745    .text               kservice.o
    0x08004b4c   0x00000978   Code   RO          762    .text               mem.o
    0x080054c4   0x00000330   Code   RO          810    .text               object.o
    0x080057f4   0x00000320   Code   RO          830    .text               scheduler.o
    0x08005b14   0x00000688   Code   RO          857    .text               thread.o
    0x0800619c   0x0000053c   Code   RO          874    .text               timer.o
    0x080066d8   0x00000094   Code   RO          893    .text               board.o
    0x0800676c   0x00000304   Code   RO          909    .text               led.o
    0x08006a70   0x0000048c   Code   RO          926    .text               usart.o
    0x08006efc   0x00000770   Code   RO          956    .text               spi_core.o
    0x0800766c   0x00000374   Code   RO          969    .text               spi_dev.o
    0x080079e0   0x00000294   Code   RO         1003    .text               rt_stm32f10x_spi.o
    0x08007c74   0x00001040   Code   RO         1034    .text               enc28j60.o
    0x08008cb4   0x00000558   Code   RO         1068    .text               lcd1602.o
    0x0800920c   0x0000011c   Code   RO         1086    .text               spi_instruction.o
    0x08009328   0x000000fc   Code   RO         1113    .text               key_input.o
    0x08009424   0x000004a4   Code   RO         1130    .text               iic_cs4385.o
    0x080098c8   0x00000040   Code   RO         1145    .text               components.o
    0x08009908   0x000004b8   Code   RO         1178    .text               dataqueue.o
    0x08009dc0   0x000005d0   Code   RO         1248    .text               serial.o
    0x0800a390   0x00000bbc   Code   RO         1261    .text               cmd.o
    0x0800af4c   0x0000184e   Code   RO         1284    .text               finsh_compiler.o
    0x0800c79a   0x00000002   PAD
    0x0800c79c   0x0000002c   Code   RO         1321    .text               finsh_error.o
    0x0800c7c8   0x00000210   Code   RO         1337    .text               finsh_heap.o
    0x0800c9d8   0x00000058   Code   RO         1353    .text               finsh_init.o
    0x0800ca30   0x00000184   Code   RO         1371    .text               finsh_node.o
    0x0800cbb4   0x00000a58   Code   RO         1386    .text               finsh_ops.o
    0x0800d60c   0x0000097c   Code   RO         1404    .text               finsh_parser.o
    0x0800df88   0x00000658   Code   RO         1419    .text               finsh_token.o
    0x0800e5e0   0x00000198   Code   RO         1434    .text               finsh_var.o
    0x0800e778   0x000000e4   Code   RO         1457    .text               finsh_vm.o
    0x0800e85c   0x000009a0   Code   RO         1499    .text               shell.o
    0x0800f1fc   0x000003f0   Code   RO         1531    .text               dfs.o
    0x0800f5ec   0x000009c8   Code   RO         1608    .text               dfs_file.o
    0x0800ffb4   0x00000634   Code   RO         1628    .text               dfs_fs.o
    0x080105e8   0x00000560   Code   RO         1647    .text               dfs_posix.o
    0x08010b48   0x0000003e   Code   RO         1681    .text               def.o
    0x08010b86   0x00000002   PAD
    0x08010b88   0x0000077c   Code   RO         1699    .text               dns.o
    0x08011304   0x00000024   Code   RO         1745    .text               init.o
    0x08011328   0x00000340   Code   RO         1873    .text               netif.o
    0x08011668   0x00000ff0   Code   RO         1912    .text               pbuf.o
    0x08012658   0x00000214   Code   RO         1939    .text               raw.o
    0x0801286c   0x00001514   Code   RO         1974    .text               tcp.o
    0x08013d80   0x00001d7c   Code   RO         2001    .text               tcp_in.o
    0x08015afc   0x00001382   Code   RO         2027    .text               tcp_out.o
    0x08016e7e   0x00000002   PAD
    0x08016e80   0x000002cc   Code   RO         2040    .text               timers.o
    0x0801714c   0x00000608   Code   RO         2078    .text               udp.o
    0x08017754   0x00000d40   Code   RO         2096    .text               api_lib.o
    0x08018494   0x000018b0   Code   RO         2136    .text               api_msg.o
    0x08019d44   0x0000038c   Code   RO         2185    .text               netbuf.o
    0x0801a0d0   0x000000f6   Code   RO         2231    .text               netifapi.o
    0x0801a1c6   0x00000002   PAD
    0x0801a1c8   0x00001f38   Code   RO         2264    .text               sockets.o
    0x0801c100   0x00000400   Code   RO         2309    .text               tcpip.o
    0x0801c500   0x00000408   Code   RO         2355    .text               icmp.o
    0x0801c908   0x00000794   Code   RO         2367    .text               igmp.o
    0x0801d09c   0x00000280   Code   RO         2390    .text               inet_chksum.o
    0x0801d31c   0x000004e4   Code   RO         2402    .text               ip.o
    0x0801d800   0x000002f0   Code   RO         2426    .text               ip_addr.o
    0x0801daf0   0x0000083c   Code   RO         2455    .text               sys_arch.o
    0x0801e32c   0x00000f40   Code   RO         2495    .text               etharp.o
    0x0801f26c   0x000009e0   Code   RO         2515    .text               ethernetif.o
    0x0801fc4c   0x00000024   Code   RO         2565    .text               mc_w.l(rand.o)(mc_w.l)
    0x0801fc70   0x00000024   Code   RO         2571    .text               mc_w.l(memcpya.o)(mc_w.l)
    0x0801fc94   0x00000026   Code   RO         2573    .text               mc_w.l(memseta.o)(mc_w.l)
    0x0801fcba   0x00000018   Code   RO         2575    .text               mc_w.l(strncpy.o)(mc_w.l)
    0x0801fcd2   0x00000010   Code   RO         2577    .text               mc_w.l(strlen.o)(mc_w.l)
    0x0801fce2   0x0000001c   Code   RO         2579    .text               mc_w.l(strcmp.o)(mc_w.l)
    0x0801fcfe   0x0000001a   Code   RO         2581    .text               mc_w.l(memcmp.o)(mc_w.l)
    0x0801fd18   0x00000012   Code   RO         2583    .text               mc_w.l(strcpy.o)(mc_w.l)
    0x0801fd2a   0x0000001e   Code   RO         2585    .text               mc_w.l(strncmp.o)(mc_w.l)
    0x0801fd48   0x00000020   Code   RO         2587    .text               mc_w.l(strrchr.o)(mc_w.l)
    0x0801fd68   0x0000001a   Code   RO         2591    .text               mc_w.l(atoi.o)(mc_w.l)
    0x0801fd82   0x00000070   Code   RO         2611    .text               mc_w.l(strtol.o)(mc_w.l)
    0x0801fdf2   0x00000002   PAD
    0x0801fdf4   0x00000024   Code   RO         2613    .text               mc_w.l(init.o)(mc_w.l)
    0x0801fe18   0x00000008   Code   RO         2615    .text               mc_w.l(ctype_o.o)(mc_w.l)
    0x0801fe20   0x0000009c   Code   RO         2643    .text               mc_w.l(_strtoul.o)(mc_w.l)
    0x0801febc   0x00000020   Code   RO         2645    .text               mc_w.l(_chval.o)(mc_w.l)
    0x0801fedc   0x0000005c   Code   RO         2655    .text               mc_w.l(__dczerorl2.o)(mc_w.l)
    0x0801ff38   0x00000008   Code   RO         2604    i.__aeabi_errno_addr  mc_w.l(errno.o)(mc_w.l)
    0x0801ff40   0x0000000e   Code   RO         2649    i.__scatterload_copy  mc_w.l(handlers.o)(mc_w.l)
    0x0801ff4e   0x00000002   Code   RO         2650    i.__scatterload_null  mc_w.l(handlers.o)(mc_w.l)
    0x0801ff50   0x0000000e   Code   RO         2651    i.__scatterload_zeroinit  mc_w.l(handlers.o)(mc_w.l)
    0x0801ff5e   0x00000013   Data   RO           15    .constdata          cpuport.o
    0x0801ff71   0x0000003e   Data   RO          331    .constdata          tcpserver.o
    0x0801ffaf   0x000000a8   Data   RO          680    .constdata          device.o
    0x08020057   0x00000016   Data   RO          695    .constdata          idle.o
    0x0802006d   0x000001d7   Data   RO          714    .constdata          ipc.o
    0x08020244   0x00000122   Data   RO          747    .constdata          kservice.o
    0x08020366   0x00000002   PAD
    0x08020368   0x00000160   Data   RO          764    .constdata          mem.o
    0x080204c8   0x0000005e   Data   RO          811    .constdata          object.o
    0x08020526   0x0000004e   Data   RO          832    .constdata          scheduler.o
    0x08020574   0x000000aa   Data   RO          858    .constdata          thread.o
    0x0802061e   0x0000005c   Data   RO          875    .constdata          timer.o
    0x0802067a   0x00000024   Data   RO          910    .constdata          led.o
    0x0802069e   0x00000002   PAD
    0x080206a0   0x00000050   Data   RO          928    .constdata          usart.o
    0x080206f0   0x000000a3   Data   RO          957    .constdata          spi_core.o
    0x08020793   0x000000d9   Data   RO          970    .constdata          spi_dev.o
    0x0802086c   0x0000002d   Data   RO         1036    .constdata          enc28j60.o
    0x08020899   0x0000004b   Data   RO         1179    .constdata          dataqueue.o
    0x080208e4   0x00000086   Data   RO         1249    .constdata          serial.o
    0x0802096a   0x00000002   PAD
    0x0802096c   0x00000293   Data   RO         1262    .constdata          cmd.o
    0x08020bff   0x00000001   PAD
    0x08020c00   0x000000c4   Data   RO         1387    .constdata          finsh_ops.o
    0x08020cc4   0x00000040   Data   RO         1420    .constdata          finsh_token.o
    0x08020d04   0x0000004d   Data   RO         1501    .constdata          shell.o
    0x08020d51   0x00000023   Data   RO         1533    .constdata          dfs.o
    0x08020d74   0x0000005f   Data   RO         1610    .constdata          dfs_file.o
    0x08020dd3   0x0000005c   Data   RO         1629    .constdata          dfs_fs.o
    0x08020e2f   0x00000019   Data   RO         1648    .constdata          dfs_posix.o
    0x08020e48   0x0000001e   Data   RO         1831    .constdata          memp.o
    0x08020e66   0x00000002   PAD
    0x08020e68   0x00000050   Data   RO         1975    .constdata          tcp.o
    0x08020eb8   0x00000055   Data   RO         2028    .constdata          tcp_out.o
    0x08020f0d   0x00000003   PAD
    0x08020f10   0x00000040   Data   RO         2266    .constdata          sockets.o
    0x08020f50   0x00000008   Data   RO         2428    .constdata          ip_addr.o
    0x08020f58   0x000000b3   Data   RO         2456    .constdata          sys_arch.o
    0x0802100b   0x00000001   PAD
    0x0802100c   0x00000050   Data   RO         2497    .constdata          etharp.o
    0x0802105c   0x000000ec   Data   RO         2517    .constdata          ethernetif.o
    0x08021148   0x00000081   Data   RO         2616    .constdata          mc_w.l(ctype_o.o)(mc_w.l)
    0x080211c9   0x00000003   PAD
    0x080211cc   0x00000004   Data   RO         2617    .constdata          mc_w.l(ctype_o.o)(mc_w.l)
    0x080211d0   0x000000e9   Data   RO         1263    .conststring        cmd.o
    0x080212b9   0x000000d8   Data   RO         1322    .conststring        finsh_error.o
    0x08021391   0x0000002c   Data   RO         1421    .conststring        finsh_token.o
    0x080213bd   0x00000068   Data   RO         1976    .conststring        tcp.o
    0x08021425   0x00000003   PAD
    0x08021428   0x00000004   Data   RO         1146    .rti_fn.0           components.o
    0x0802142c   0x00000004   Data   RO         1147    .rti_fn.1.post      components.o
    0x08021430   0x00000004   Data   RO         1148    .rti_fn.7           components.o
    0x08021434   0x0000000c   Data   RO          332    FSymTab             tcpserver.o
    0x08021440   0x0000000c   Data   RO          766    FSymTab             mem.o
    0x0802144c   0x0000000c   Data   RO          912    FSymTab             led.o
    0x08021458   0x0000000c   Data   RO         1038    FSymTab             enc28j60.o
    0x08021464   0x00000090   Data   RO         1265    FSymTab             cmd.o
    0x080214f4   0x00000030   Data   RO         1611    FSymTab             dfs_file.o
    0x08021524   0x00000018   Data   RO         1630    FSymTab             dfs_fs.o
    0x0802153c   0x0000000c   Data   RO         1649    FSymTab             dfs_posix.o
    0x08021548   0x00000030   Data   RO         2519    FSymTab             ethernetif.o
    0x08021578   0x00000020   Data   RO         2647    Region$$Table       anon$$obj.o
    0x08021598   0x00000010   Data   RO         1266    VSymTab             cmd.o


    Execution Region RW_IRAM1 (Base: 0x20000000, Size: 0x00003290, Max: 0x00010000, ABSOLUTE, COMPRESSED[0x000000c4])

    Base Addr    Size         Type   Attr      Idx    E Section Name        Object

    0x20000000   0x00000010   Data   RW           16    .data               cpuport.o
    0x20000010   0x00000018   Data   RW          208    .data               application.o
    0x20000028   0x00000014   Data   RW          552    .data               stm32f10x_rcc.o
    0x2000003c   0x00000014   Data   RW          648    .data               system_stm32f10x.o
    0x20000050   0x00000004   Data   RW          666    .data               clock.o
    0x20000054   0x00000004   Data   RW          696    .data               idle.o
    0x20000058   0x00000001   Data   RW          731    .data               irq.o
    0x20000059   0x00000003   PAD
    0x2000005c   0x00000008   Data   RW          748    .data               kservice.o
    0x20000064   0x00000020   Data   RW          765    .data               mem.o
    0x20000084   0x000000a4   Data   RW          812    .data               object.o
    0x20000128   0x0000001c   Data   RW          833    .data               scheduler.o
    0x20000144   0x00000010   Data   RW          876    .data               timer.o
    0x20000154   0x00000005   Data   RW          911    .data               led.o
    0x20000159   0x00000003   PAD
    0x2000015c   0x00000018   Data   RW          929    .data               usart.o
    0x20000174   0x00000008   Data   RW         1004    .data               rt_stm32f10x_spi.o
    0x2000017c   0x00000014   Data   RW         1037    .data               enc28j60.o
    0x20000190   0x00000008   Data   RW         1088    .data               spi_instruction.o
    0x20000198   0x00000018   Data   RW         1114    .data               key_input.o
    0x200001b0   0x00000004   Data   RW         1264    .data               cmd.o
    0x200001b4   0x00000008   Data   RW         1285    .data               finsh_compiler.o
    0x200001bc   0x0000003d   Data   RW         1323    .data               finsh_error.o
    0x200001f9   0x00000003   PAD
    0x200001fc   0x00000008   Data   RW         1339    .data               finsh_heap.o
    0x20000204   0x00000004   Data   RW         1436    .data               finsh_var.o
    0x20000208   0x0000000c   Data   RW         1459    .data               finsh_vm.o
    0x20000214   0x00000004   Data   RW         1502    .data               shell.o
    0x20000218   0x00000010   Data   RW         1518    .data               symbol.o
    0x20000228   0x00000014   Data   RW         1701    .data               dns.o
    0x2000023c   0x00000009   Data   RW         1874    .data               netif.o
    0x20000245   0x00000001   Data   RW         1913    .data               pbuf.o
    0x20000246   0x00000002   PAD
    0x20000248   0x00000004   Data   RW         1940    .data               raw.o
    0x2000024c   0x00000023   Data   RW         1977    .data               tcp.o
    0x2000026f   0x00000001   PAD
    0x20000270   0x00000020   Data   RW         2003    .data               tcp_in.o
    0x20000290   0x00000008   Data   RW         2041    .data               timers.o
    0x20000298   0x00000008   Data   RW         2079    .data               udp.o
    0x200002a0   0x00000008   Data   RW         2267    .data               sockets.o
    0x200002a8   0x0000000c   Data   RW         2310    .data               tcpip.o
    0x200002b4   0x0000000c   Data   RW         2368    .data               igmp.o
    0x200002c0   0x00000012   Data   RW         2403    .data               ip.o
    0x200002d2   0x00000006   Data   RW         2457    .data               sys_arch.o
    0x200002d8   0x00000001   Data   RW         2498    .data               etharp.o
    0x200002d9   0x00000003   PAD
    0x200002dc   0x00000004   Data   RW         2566    .data               mc_w.l(rand.o)(mc_w.l)
    0x200002e0   0x00000004   Data   RW         2607    .data               mc_w.l(errno.o)(mc_w.l)
    0x200002e4   0x00000700   Zero   RW          207    .bss                application.o
    0x200009e4   0x00000180   Zero   RW          694    .bss                idle.o
    0x20000b64   0x00000080   Zero   RW          746    .bss                kservice.o
    0x20000be4   0x00000020   Zero   RW          763    .bss                mem.o
    0x20000c04   0x00000100   Zero   RW          831    .bss                scheduler.o
    0x20000d04   0x00000240   Zero   RW          927    .bss                usart.o
    0x20000f44   0x00000244   Zero   RW         1035    .bss                enc28j60.o
    0x20001188   0x00000130   Zero   RW         1087    .bss                spi_instruction.o
    0x200012b8   0x00000080   Zero   RW         1338    .bss                finsh_heap.o
    0x20001338   0x00000140   Zero   RW         1372    .bss                finsh_node.o
    0x20001478   0x000000c0   Zero   RW         1435    .bss                finsh_var.o
    0x20001538   0x00000180   Zero   RW         1458    .bss                finsh_vm.o
    0x200016b8   0x00000880   Zero   RW         1500    .bss                shell.o
    0x20001f38   0x000000d4   Zero   RW         1532    .bss                dfs.o
    0x2000200c   0x00000124   Zero   RW         1609    .bss                dfs_file.o
    0x20002130   0x00000663   Zero   RW         1700    .bss                dns.o
    0x20002793   0x00000001   PAD
    0x20002794   0x00000014   Zero   RW         2002    .bss                tcp_in.o
    0x200027a8   0x00000060   Zero   RW         2265    .bss                sockets.o
    0x20002808   0x00000010   Zero   RW         2427    .bss                ip_addr.o
    0x20002818   0x000000c8   Zero   RW         2496    .bss                etharp.o
    0x200028e0   0x000005b0   Zero   RW         2516    .bss                ethernetif.o
    0x20002e90   0x00000400   Zero   RW            1    STACK               startup_stm32f10x_hd.o


==============================================================================

Image component sizes


      Code (inc. data)   RO Data    RW Data    ZI Data      Debug   Object Name

      3392        888          0          0          0          0   api_lib.o
      6320       1220          0          0          0          0   api_msg.o
      1132        408          0         24       1792          0   application.o
       148         20          0          0          0          0   board.o
       100          6          0          4          0          0   clock.o
      3004       1238       1052          4          0          0   cmd.o
        64         12         12          0          0          0   components.o
       240         26          0          0          0          0   context_rvds.o
      1524        768         19         16          0          0   cpuport.o
      1208        144         75          0          0          0   dataqueue.o
        62          0          0          0          0          0   def.o
      1044        166        168          0          0          0   device.o
      1008        162         35          0        212          0   dfs.o
         0          0          0          0          0          0   dfs_elm.o
      2504        358        143          0        292          0   dfs_file.o
      1588        294        116          0          0          0   dfs_fs.o
      1376         48         37          0          0          0   dfs_posix.o
      1916        238          0         20       1635          0   dns.o
      4160        716         57         20        580          0   enc28j60.o
      3904        590         80          1        200          0   etharp.o
      2528        820        284          0       1456          0   ethernetif.o
      6222        120          0          8          0          0   finsh_compiler.o
        44         10        216         61          0          0   finsh_error.o
       528         18          0          8        128          0   finsh_heap.o
        88          6          0          0          0          0   finsh_init.o
       388          4          0          0        320          0   finsh_node.o
      2648         38        196          0          0          0   finsh_ops.o
      2428         32          0          0          0          0   finsh_parser.o
      1624         16        108          0          0          0   finsh_token.o
       408         16          0          4        192          0   finsh_var.o
       228         34          0         12        384          0   finsh_vm.o
      1032        320          0          0          0          0   icmp.o
       356        106         22          4        384          0   idle.o
      1940        354          0         12          0          0   igmp.o
      1188         28          0          0          0          0   iic_cs4385.o
       640         48          0          0          0          0   inet_chksum.o
        36          0          0          0          0          0   init.o
      1252        116          0         18          0          0   ip.o
       752         54          8          0         16          0   ip_addr.o
      6656        460        471          0          0          0   ipc.o
        72          6          0          1          0          0   irq.o
       252         20          0         24          0          0   key_input.o
      2448        170        290          8        128          0   kservice.o
      1368          4          0          0          0          0   lcd1602.o
       772         38         48          5          0          0   led.o
      2424        586        364         32         32          0   mem.o
         0          0         30          0          0          0   memp.o
       248         30          0          0          0          0   misc.o
       908        292          0          0          0          0   netbuf.o
       832         72          0          9          0          0   netif.o
       246          0          0          0          0          0   netifapi.o
       816        186         94        164          0          0   object.o
      4080       1122          0          1          0          0   pbuf.o
       532         80          0          4          0          0   raw.o
       660         26          0          8          0          0   rt_stm32f10x_spi.o
       800        180         78         28        256          0   scheduler.o
      1488        212        134          0          0          0   serial.o
      2464        314         77          4       2176          0   shell.o
      7992        662         64          8         96          0   sockets.o
         0          0          0          0          0          0   spi_bus.o
      1904        200        163          0          0          0   spi_core.o
       884        204        217          0          0          0   spi_dev.o
       284         58          0          8        304          0   spi_instruction.o
       196         96          0          0          0          0   startup.o
        36          8        304          0       1024          0   startup_stm32f10x_hd.o
       316         28          0          0          0          0   stm32f10x_exti.o
       856         40          0          0          0          0   stm32f10x_gpio.o
        18          0          0          0          0          0   stm32f10x_it.o
       932         52          0         20          0          0   stm32f10x_rcc.o
       784         12          0          0          0          0   stm32f10x_spi.o
      1036         20          0          0          0          0   stm32f10x_usart.o
         0          0          0         16          0          0   symbol.o
      2108        378        179          6          0          0   sys_arch.o
       456         36          0         20          0          0   system_stm32f10x.o
      5396       1078        184         35          0          0   tcp.o
      7548       1012          0         32         20          0   tcp_in.o
      4994        902         85          0          0          0   tcp_out.o
      1024        166          0         12          0          0   tcpip.o
       500        184         74          0          0          0   tcpserver.o
      1672        246        170          0          0          0   thread.o
      1340        146         92         16          0          0   timer.o
       716        130          0          8          0          0   timers.o
      1544        148          0          8          0          0   udp.o
      1164        168         80         24        576          0   usart.o

    ----------------------------------------------------------------------
    129800      19214       5874        732      12204          0   Object Totals
         0          0         32          0          0          0   (incl. Generated)
        10          0         16         15          1          2   (incl. Padding)

    ----------------------------------------------------------------------

      Code (inc. data)   RO Data    RW Data    ZI Data      Debug   Library Member Name

        92          0          0          0          0          0   __dczerorl2.o
        32          0          0          0          0          0   _chval.o
       156          0          0          0          0          0   _strtoul.o
        26          0          0          0          0          0   atoi.o
         8          4        133          0          0          0   ctype_o.o
         0          0          0          0          0          0   entry.o
         8          4          0          0          0          0   entry2.o
         4          0          0          0          0          0   entry5.o
         8          4          0          0          0          0   entry7.o
         8          4          0          4          0          0   errno.o
        30          0          0          0          0          0   handlers.o
        36          8          0          0          0          0   init.o
        26          0          0          0          0          0   memcmp.o
        36          0          0          0          0          0   memcpya.o
        38          0          0          0          0          0   memseta.o
        36         10          0          4          0          0   rand.o
        28          0          0          0          0          0   strcmp.o
        18          0          0          0          0          0   strcpy.o
        16          0          0          0          0          0   strlen.o
        30          0          0          0          0          0   strncmp.o
        24          0          0          0          0          0   strncpy.o
        32          0          0          0          0          0   strrchr.o
       112          0          0          0          0          0   strtol.o

    ----------------------------------------------------------------------
       806         34        136          8          0          0   Library Totals
         2          0          3          0          0          0   (incl. Padding)

    ----------------------------------------------------------------------

      Code (inc. data)   RO Data    RW Data    ZI Data      Debug   Library Name

       804         34        133          8          0       1360   mc_w.l

    ----------------------------------------------------------------------
       806         34        136          8          0          0   Library Totals

    ----------------------------------------------------------------------

==============================================================================


      Code (inc. data)   RO Data    RW Data    ZI Data      Debug   

    130606      19248       6010        740      12204     899208   Grand Totals
    130606      19248       6010        196      12204     899208   ELF Image Totals (compressed)
    130606      19248       6010        196          0          0   ROM Totals

==============================================================================

    Total RO  Size (Code + RO Data)               136616 ( 133.41kB)
    Total RW  Size (RW Data + ZI Data)             12944 (  12.64kB)
    Total ROM Size (Code + RO Data + RW Data)     136812 ( 133.61kB)

==============================================================================

